

HI-TECH Software PIC18 LITE Macro Assembler V9.80 build 11162 
                                                                                               Mon Mar 17 17:24:22 2014

HI-TECH Software Omniscient Code Generator (Lite mode) build 11162
     1  0000                     opt subtitle "HI-TECH Software Omniscient Code Generator (Lite mode) build 11162"
     2                           
     3                           opt pagewidth 120
     4                           
     5                           	opt lm
     6                           
     7                           	processor	18F45K80
     8  0000                     porta	equ	0F80h
     9  0000                     portb	equ	0F81h
    10  0000                     portc	equ	0F82h
    11  0000                     portd	equ	0F83h
    12  0000                     porte	equ	0F84h
    13  0000                     lata	equ	0F89h
    14  0000                     latb	equ	0F8Ah
    15  0000                     latc	equ	0F8Bh
    16  0000                     latd	equ	0F8Ch
    17  0000                     late	equ	0F8Dh
    18  0000                     trisa	equ	0F92h
    19  0000                     trisb	equ	0F93h
    20  0000                     trisc	equ	0F94h
    21  0000                     trisd	equ	0F95h
    22  0000                     trise	equ	0F96h
    23  0000                     pie1	equ	0F9Dh
    24  0000                     pir1	equ	0F9Eh
    25  0000                     ipr1	equ	0F9Fh
    26  0000                     pie2	equ	0FA0h
    27  0000                     pir2	equ	0FA1h
    28  0000                     ipr2	equ	0FA2h
    29  0000                     t3con	equ	0FB1h
    30  0000                     tmr3l	equ	0FB2h
    31  0000                     tmr3h	equ	0FB3h
    32  0000                     ccp1con	equ	0FBDh
    33  0000                     ccpr1l	equ	0FBEh
    34  0000                     ccpr1h	equ	0FBFh
    35  0000                     adcon1	equ	0FC1h
    36  0000                     adcon0	equ	0FC2h
    37  0000                     adresl	equ	0FC3h
    38  0000                     adresh	equ	0FC4h
    39  0000                     sspcon2	equ	0FC5h
    40  0000                     sspcon1	equ	0FC6h
    41  0000                     sspstat	equ	0FC7h
    42  0000                     sspadd	equ	0FC8h
    43  0000                     sspbuf	equ	0FC9h
    44  0000                     t2con	equ	0FCAh
    45  0000                     pr2	equ	0FCBh
    46  0000                     tmr2	equ	0FCCh
    47  0000                     t1con	equ	0FCDh
    48  0000                     tmr1l	equ	0FCEh
    49  0000                     tmr1h	equ	0FCFh
    50  0000                     rcon	equ	0FD0h
    51  0000                     wdtcon	equ	0FD1h
    52  0000                     lvdcon	equ	0FD2h
    53  0000                     osccon	equ	0FD3h
    54  0000                     t0con	equ	0FD5h
    55  0000                     tmr0l	equ	0FD6h
    56  0000                     tmr0h	equ	0FD7h
    57  0000                     status	equ	0FD8h
    58  0000                     fsr2	equ	0FD9h
    59  0000                     fsr2l	equ	0FD9h
    60  0000                     fsr2h	equ	0FDAh
    61  0000                     plusw2	equ	0FDBh
    62  0000                     preinc2	equ	0FDCh
    63  0000                     postdec2	equ	0FDDh
    64  0000                     postinc2	equ	0FDEh
    65  0000                     indf2	equ	0FDFh
    66  0000                     bsr	equ	0FE0h
    67  0000                     fsr1	equ	0FE1h
    68  0000                     fsr1l	equ	0FE1h
    69  0000                     fsr1h	equ	0FE2h
    70  0000                     plusw1	equ	0FE3h
    71  0000                     preinc1	equ	0FE4h
    72  0000                     postdec1	equ	0FE5h
    73  0000                     postinc1	equ	0FE6h
    74  0000                     indf1	equ	0FE7h
    75  0000                     wreg	equ	0FE8h
    76  0000                     fsr0	equ	0FE9h
    77  0000                     fsr0l	equ	0FE9h
    78  0000                     fsr0h	equ	0FEAh
    79  0000                     plusw0	equ	0FEBh
    80  0000                     preinc0	equ	0FECh
    81  0000                     postdec0	equ	0FEDh
    82  0000                     postinc0	equ	0FEEh
    83  0000                     indf0	equ	0FEFh
    84  0000                     intcon3	equ	0FF0h
    85  0000                     intcon2	equ	0FF1h
    86  0000                     intcon	equ	0FF2h
    87  0000                     prod	equ	0FF3h
    88  0000                     prodl	equ	0FF3h
    89  0000                     prodh	equ	0FF4h
    90  0000                     tablat	equ	0FF5h
    91  0000                     tblptr	equ	0FF6h
    92  0000                     tblptrl	equ	0FF6h
    93  0000                     tblptrh	equ	0FF7h
    94  0000                     tblptru	equ	0FF8h
    95  0000                     pcl	equ	0FF9h
    96  0000                     pclat	equ	0FFAh
    97  0000                     pclath	equ	0FFAh
    98  0000                     pclatu	equ	0FFBh
    99  0000                     stkptr	equ	0FFCh
   100  0000                     tosl	equ	0FFDh
   101  0000                     tosh	equ	0FFEh
   102  0000                     tosu	equ	0FFFh
   103                           skipnz macro
   104                           	btfsc	status,2
   105  0000                     	endm
   106                           	global	__ramtop
   107                           	global	__accesstop
   108                           # 19 "C:\Program Files\HI-TECH Software\PICC-18\9.80\include\PIC18F45K80.h"
   109  0000                     RXERRCNT equ 0E41h ;# 
   110                           # 41 "C:\Program Files\HI-TECH Software\PICC-18\9.80\include\PIC18F45K80.h"
   111  0000                     TXERRCNT equ 0E42h ;# 
   112                           # 63 "C:\Program Files\HI-TECH Software\PICC-18\9.80\include\PIC18F45K80.h"
   113  0000                     BRGCON1 equ 0E43h ;# 
   114                           # 86 "C:\Program Files\HI-TECH Software\PICC-18\9.80\include\PIC18F45K80.h"
   115  0000                     BRGCON2 equ 0E44h ;# 
   116                           # 113 "C:\Program Files\HI-TECH Software\PICC-18\9.80\include\PIC18F45K80.h"
   117  0000                     BRGCON3 equ 0E45h ;# 
   118                           # 133 "C:\Program Files\HI-TECH Software\PICC-18\9.80\include\PIC18F45K80.h"
   119  0000                     RXFCON0 equ 0E46h ;# 
   120                           # 152 "C:\Program Files\HI-TECH Software\PICC-18\9.80\include\PIC18F45K80.h"
   121  0000                     RXFCON1 equ 0E47h ;# 
   122                           # 171 "C:\Program Files\HI-TECH Software\PICC-18\9.80\include\PIC18F45K80.h"
   123  0000                     RXF6SIDH equ 0E48h ;# 
   124                           # 224 "C:\Program Files\HI-TECH Software\PICC-18\9.80\include\PIC18F45K80.h"
   125  0000                     RXF6SIDL equ 0E49h ;# 
   126                           # 271 "C:\Program Files\HI-TECH Software\PICC-18\9.80\include\PIC18F45K80.h"
   127  0000                     RXF6EIDH equ 0E4Ah ;# 
   128                           # 324 "C:\Program Files\HI-TECH Software\PICC-18\9.80\include\PIC18F45K80.h"
   129  0000                     RXF6EIDL equ 0E4Bh ;# 
   130                           # 377 "C:\Program Files\HI-TECH Software\PICC-18\9.80\include\PIC18F45K80.h"
   131  0000                     RXF7SIDH equ 0E4Ch ;# 
   132                           # 430 "C:\Program Files\HI-TECH Software\PICC-18\9.80\include\PIC18F45K80.h"
   133  0000                     RXF7SIDL equ 0E4Dh ;# 
   134                           # 477 "C:\Program Files\HI-TECH Software\PICC-18\9.80\include\PIC18F45K80.h"
   135  0000                     RXF7EIDH equ 0E4Eh ;# 
   136                           # 530 "C:\Program Files\HI-TECH Software\PICC-18\9.80\include\PIC18F45K80.h"
   137  0000                     RXF7EIDL equ 0E4Fh ;# 
   138                           # 583 "C:\Program Files\HI-TECH Software\PICC-18\9.80\include\PIC18F45K80.h"
   139  0000                     RXF8SIDH equ 0E50h ;# 
   140                           # 636 "C:\Program Files\HI-TECH Software\PICC-18\9.80\include\PIC18F45K80.h"
   141  0000                     RXF8SIDL equ 0E51h ;# 
   142                           # 683 "C:\Program Files\HI-TECH Software\PICC-18\9.80\include\PIC18F45K80.h"
   143  0000                     RXF8EIDH equ 0E52h ;# 
   144                           # 736 "C:\Program Files\HI-TECH Software\PICC-18\9.80\include\PIC18F45K80.h"
   145  0000                     RXF8EIDL equ 0E53h ;# 
   146                           # 789 "C:\Program Files\HI-TECH Software\PICC-18\9.80\include\PIC18F45K80.h"
   147  0000                     RXF9SIDH equ 0E54h ;# 
   148                           # 842 "C:\Program Files\HI-TECH Software\PICC-18\9.80\include\PIC18F45K80.h"
   149  0000                     RXF9SIDL equ 0E55h ;# 
   150                           # 889 "C:\Program Files\HI-TECH Software\PICC-18\9.80\include\PIC18F45K80.h"
   151  0000                     RXF9EIDH equ 0E56h ;# 
   152                           # 942 "C:\Program Files\HI-TECH Software\PICC-18\9.80\include\PIC18F45K80.h"
   153  0000                     RXF9EIDL equ 0E57h ;# 
   154                           # 995 "C:\Program Files\HI-TECH Software\PICC-18\9.80\include\PIC18F45K80.h"
   155  0000                     RXF10SIDH equ 0E58h ;# 
   156                           # 1048 "C:\Program Files\HI-TECH Software\PICC-18\9.80\include\PIC18F45K80.h"
   157  0000                     RXF10SIDL equ 0E59h ;# 
   158                           # 1095 "C:\Program Files\HI-TECH Software\PICC-18\9.80\include\PIC18F45K80.h"
   159  0000                     RXF10EIDH equ 0E5Ah ;# 
   160                           # 1148 "C:\Program Files\HI-TECH Software\PICC-18\9.80\include\PIC18F45K80.h"
   161  0000                     RXF10EIDL equ 0E5Bh ;# 
   162                           # 1201 "C:\Program Files\HI-TECH Software\PICC-18\9.80\include\PIC18F45K80.h"
   163  0000                     RXF11SIDH equ 0E5Ch ;# 
   164                           # 1254 "C:\Program Files\HI-TECH Software\PICC-18\9.80\include\PIC18F45K80.h"
   165  0000                     RXF11SIDL equ 0E5Dh ;# 
   166                           # 1301 "C:\Program Files\HI-TECH Software\PICC-18\9.80\include\PIC18F45K80.h"
   167  0000                     RXF11EIDH equ 0E5Eh ;# 
   168                           # 1354 "C:\Program Files\HI-TECH Software\PICC-18\9.80\include\PIC18F45K80.h"
   169  0000                     RXF11EIDL equ 0E5Fh ;# 
   170                           # 1407 "C:\Program Files\HI-TECH Software\PICC-18\9.80\include\PIC18F45K80.h"
   171  0000                     RXF12SIDH equ 0E60h ;# 
   172                           # 1460 "C:\Program Files\HI-TECH Software\PICC-18\9.80\include\PIC18F45K80.h"
   173  0000                     RXF12SIDL equ 0E61h ;# 
   174                           # 1507 "C:\Program Files\HI-TECH Software\PICC-18\9.80\include\PIC18F45K80.h"
   175  0000                     RXF12EIDH equ 0E62h ;# 
   176                           # 1560 "C:\Program Files\HI-TECH Software\PICC-18\9.80\include\PIC18F45K80.h"
   177  0000                     RXF12EIDL equ 0E63h ;# 
   178                           # 1613 "C:\Program Files\HI-TECH Software\PICC-18\9.80\include\PIC18F45K80.h"
   179  0000                     RXF13SIDH equ 0E64h ;# 
   180                           # 1666 "C:\Program Files\HI-TECH Software\PICC-18\9.80\include\PIC18F45K80.h"
   181  0000                     RXF13SIDL equ 0E65h ;# 
   182                           # 1713 "C:\Program Files\HI-TECH Software\PICC-18\9.80\include\PIC18F45K80.h"
   183  0000                     RXF13EIDH equ 0E66h ;# 
   184                           # 1766 "C:\Program Files\HI-TECH Software\PICC-18\9.80\include\PIC18F45K80.h"
   185  0000                     RXF13EIDL equ 0E67h ;# 
   186                           # 1819 "C:\Program Files\HI-TECH Software\PICC-18\9.80\include\PIC18F45K80.h"
   187  0000                     RXF14SIDH equ 0E68h ;# 
   188                           # 1872 "C:\Program Files\HI-TECH Software\PICC-18\9.80\include\PIC18F45K80.h"
   189  0000                     RXF14SIDL equ 0E69h ;# 
   190                           # 1919 "C:\Program Files\HI-TECH Software\PICC-18\9.80\include\PIC18F45K80.h"
   191  0000                     RXF14EIDH equ 0E6Ah ;# 
   192                           # 1972 "C:\Program Files\HI-TECH Software\PICC-18\9.80\include\PIC18F45K80.h"
   193  0000                     RXF14EIDL equ 0E6Bh ;# 
   194                           # 2025 "C:\Program Files\HI-TECH Software\PICC-18\9.80\include\PIC18F45K80.h"
   195  0000                     RXF15SIDH equ 0E6Ch ;# 
   196                           # 2078 "C:\Program Files\HI-TECH Software\PICC-18\9.80\include\PIC18F45K80.h"
   197  0000                     RXF15SIDL equ 0E6Dh ;# 
   198                           # 2125 "C:\Program Files\HI-TECH Software\PICC-18\9.80\include\PIC18F45K80.h"
   199  0000                     RXF15EIDH equ 0E6Eh ;# 
   200                           # 2178 "C:\Program Files\HI-TECH Software\PICC-18\9.80\include\PIC18F45K80.h"
   201  0000                     RXF15EIDL equ 0E6Fh ;# 
   202                           # 2231 "C:\Program Files\HI-TECH Software\PICC-18\9.80\include\PIC18F45K80.h"
   203  0000                     SDFLC equ 0E70h ;# 
   204                           # 2250 "C:\Program Files\HI-TECH Software\PICC-18\9.80\include\PIC18F45K80.h"
   205  0000                     RXFBCON0 equ 0E71h ;# 
   206                           # 2276 "C:\Program Files\HI-TECH Software\PICC-18\9.80\include\PIC18F45K80.h"
   207  0000                     RXFBCON1 equ 0E72h ;# 
   208                           # 2302 "C:\Program Files\HI-TECH Software\PICC-18\9.80\include\PIC18F45K80.h"
   209  0000                     RXFBCON2 equ 0E73h ;# 
   210                           # 2328 "C:\Program Files\HI-TECH Software\PICC-18\9.80\include\PIC18F45K80.h"
   211  0000                     RXFBCON3 equ 0E74h ;# 
   212                           # 2354 "C:\Program Files\HI-TECH Software\PICC-18\9.80\include\PIC18F45K80.h"
   213  0000                     RXFBCON4 equ 0E75h ;# 
   214                           # 2380 "C:\Program Files\HI-TECH Software\PICC-18\9.80\include\PIC18F45K80.h"
   215  0000                     RXFBCON5 equ 0E76h ;# 
   216                           # 2406 "C:\Program Files\HI-TECH Software\PICC-18\9.80\include\PIC18F45K80.h"
   217  0000                     RXFBCON6 equ 0E77h ;# 
   218                           # 2432 "C:\Program Files\HI-TECH Software\PICC-18\9.80\include\PIC18F45K80.h"
   219  0000                     RXFBCON7 equ 0E78h ;# 
   220                           # 2458 "C:\Program Files\HI-TECH Software\PICC-18\9.80\include\PIC18F45K80.h"
   221  0000                     MSEL0 equ 0E79h ;# 
   222                           # 2483 "C:\Program Files\HI-TECH Software\PICC-18\9.80\include\PIC18F45K80.h"
   223  0000                     MSEL1 equ 0E7Ah ;# 
   224                           # 2508 "C:\Program Files\HI-TECH Software\PICC-18\9.80\include\PIC18F45K80.h"
   225  0000                     MSEL2 equ 0E7Bh ;# 
   226                           # 2533 "C:\Program Files\HI-TECH Software\PICC-18\9.80\include\PIC18F45K80.h"
   227  0000                     MSEL3 equ 0E7Ch ;# 
   228                           # 2558 "C:\Program Files\HI-TECH Software\PICC-18\9.80\include\PIC18F45K80.h"
   229  0000                     BSEL0 equ 0E7Dh ;# 
   230                           # 2576 "C:\Program Files\HI-TECH Software\PICC-18\9.80\include\PIC18F45K80.h"
   231  0000                     BIE0 equ 0E7Eh ;# 
   232                           # 2602 "C:\Program Files\HI-TECH Software\PICC-18\9.80\include\PIC18F45K80.h"
   233  0000                     TXBIE equ 0E7Fh ;# 
   234                           # 2629 "C:\Program Files\HI-TECH Software\PICC-18\9.80\include\PIC18F45K80.h"
   235  0000                     B0CON equ 0E80h ;# 
   236                           # 2740 "C:\Program Files\HI-TECH Software\PICC-18\9.80\include\PIC18F45K80.h"
   237  0000                     B0SIDH equ 0E81h ;# 
   238                           # 2793 "C:\Program Files\HI-TECH Software\PICC-18\9.80\include\PIC18F45K80.h"
   239  0000                     B0SIDL equ 0E82h ;# 
   240                           # 2844 "C:\Program Files\HI-TECH Software\PICC-18\9.80\include\PIC18F45K80.h"
   241  0000                     B0EIDH equ 0E83h ;# 
   242                           # 2897 "C:\Program Files\HI-TECH Software\PICC-18\9.80\include\PIC18F45K80.h"
   243  0000                     B0EIDL equ 0E84h ;# 
   244                           # 2950 "C:\Program Files\HI-TECH Software\PICC-18\9.80\include\PIC18F45K80.h"
   245  0000                     B0DLC equ 0E85h ;# 
   246                           # 3004 "C:\Program Files\HI-TECH Software\PICC-18\9.80\include\PIC18F45K80.h"
   247  0000                     B0D0 equ 0E86h ;# 
   248                           # 3026 "C:\Program Files\HI-TECH Software\PICC-18\9.80\include\PIC18F45K80.h"
   249  0000                     B0D1 equ 0E87h ;# 
   250                           # 3048 "C:\Program Files\HI-TECH Software\PICC-18\9.80\include\PIC18F45K80.h"
   251  0000                     B0D2 equ 0E88h ;# 
   252                           # 3070 "C:\Program Files\HI-TECH Software\PICC-18\9.80\include\PIC18F45K80.h"
   253  0000                     B0D3 equ 0E89h ;# 
   254                           # 3092 "C:\Program Files\HI-TECH Software\PICC-18\9.80\include\PIC18F45K80.h"
   255  0000                     B0D4 equ 0E8Ah ;# 
   256                           # 3114 "C:\Program Files\HI-TECH Software\PICC-18\9.80\include\PIC18F45K80.h"
   257  0000                     B0D5 equ 0E8Bh ;# 
   258                           # 3136 "C:\Program Files\HI-TECH Software\PICC-18\9.80\include\PIC18F45K80.h"
   259  0000                     B0D6 equ 0E8Ch ;# 
   260                           # 3158 "C:\Program Files\HI-TECH Software\PICC-18\9.80\include\PIC18F45K80.h"
   261  0000                     B0D7 equ 0E8Dh ;# 
   262                           # 3180 "C:\Program Files\HI-TECH Software\PICC-18\9.80\include\PIC18F45K80.h"
   263  0000                     CANSTAT_RO9 equ 0E8Eh ;# 
   264                           # 3221 "C:\Program Files\HI-TECH Software\PICC-18\9.80\include\PIC18F45K80.h"
   265  0000                     CANCON_RO9 equ 0E8Fh ;# 
   266                           # 3258 "C:\Program Files\HI-TECH Software\PICC-18\9.80\include\PIC18F45K80.h"
   267  0000                     B1CON equ 0E90h ;# 
   268                           # 3369 "C:\Program Files\HI-TECH Software\PICC-18\9.80\include\PIC18F45K80.h"
   269  0000                     B1SIDH equ 0E91h ;# 
   270                           # 3422 "C:\Program Files\HI-TECH Software\PICC-18\9.80\include\PIC18F45K80.h"
   271  0000                     B1SIDL equ 0E92h ;# 
   272                           # 3473 "C:\Program Files\HI-TECH Software\PICC-18\9.80\include\PIC18F45K80.h"
   273  0000                     B1EIDH equ 0E93h ;# 
   274                           # 3526 "C:\Program Files\HI-TECH Software\PICC-18\9.80\include\PIC18F45K80.h"
   275  0000                     B1EIDL equ 0E94h ;# 
   276                           # 3579 "C:\Program Files\HI-TECH Software\PICC-18\9.80\include\PIC18F45K80.h"
   277  0000                     B1DLC equ 0E95h ;# 
   278                           # 3633 "C:\Program Files\HI-TECH Software\PICC-18\9.80\include\PIC18F45K80.h"
   279  0000                     B1D0 equ 0E96h ;# 
   280                           # 3655 "C:\Program Files\HI-TECH Software\PICC-18\9.80\include\PIC18F45K80.h"
   281  0000                     B1D1 equ 0E97h ;# 
   282                           # 3677 "C:\Program Files\HI-TECH Software\PICC-18\9.80\include\PIC18F45K80.h"
   283  0000                     B1D2 equ 0E98h ;# 
   284                           # 3699 "C:\Program Files\HI-TECH Software\PICC-18\9.80\include\PIC18F45K80.h"
   285  0000                     B1D3 equ 0E99h ;# 
   286                           # 3721 "C:\Program Files\HI-TECH Software\PICC-18\9.80\include\PIC18F45K80.h"
   287  0000                     B1D4 equ 0E9Ah ;# 
   288                           # 3743 "C:\Program Files\HI-TECH Software\PICC-18\9.80\include\PIC18F45K80.h"
   289  0000                     B1D5 equ 0E9Bh ;# 
   290                           # 3765 "C:\Program Files\HI-TECH Software\PICC-18\9.80\include\PIC18F45K80.h"
   291  0000                     B1D6 equ 0E9Ch ;# 
   292                           # 3787 "C:\Program Files\HI-TECH Software\PICC-18\9.80\include\PIC18F45K80.h"
   293  0000                     B1D7 equ 0E9Dh ;# 
   294                           # 3809 "C:\Program Files\HI-TECH Software\PICC-18\9.80\include\PIC18F45K80.h"
   295  0000                     CANSTAT_RO8 equ 0E9Eh ;# 
   296                           # 3850 "C:\Program Files\HI-TECH Software\PICC-18\9.80\include\PIC18F45K80.h"
   297  0000                     CANCON_RO8 equ 0E9Fh ;# 
   298                           # 3887 "C:\Program Files\HI-TECH Software\PICC-18\9.80\include\PIC18F45K80.h"
   299  0000                     B2CON equ 0EA0h ;# 
   300                           # 3998 "C:\Program Files\HI-TECH Software\PICC-18\9.80\include\PIC18F45K80.h"
   301  0000                     B2SIDH equ 0EA1h ;# 
   302                           # 4051 "C:\Program Files\HI-TECH Software\PICC-18\9.80\include\PIC18F45K80.h"
   303  0000                     B2SIDL equ 0EA2h ;# 
   304                           # 4106 "C:\Program Files\HI-TECH Software\PICC-18\9.80\include\PIC18F45K80.h"
   305  0000                     B2EIDH equ 0EA3h ;# 
   306                           # 4159 "C:\Program Files\HI-TECH Software\PICC-18\9.80\include\PIC18F45K80.h"
   307  0000                     B2EIDL equ 0EA4h ;# 
   308                           # 4212 "C:\Program Files\HI-TECH Software\PICC-18\9.80\include\PIC18F45K80.h"
   309  0000                     B2DLC equ 0EA5h ;# 
   310                           # 4266 "C:\Program Files\HI-TECH Software\PICC-18\9.80\include\PIC18F45K80.h"
   311  0000                     B2D0 equ 0EA6h ;# 
   312                           # 4288 "C:\Program Files\HI-TECH Software\PICC-18\9.80\include\PIC18F45K80.h"
   313  0000                     B2D1 equ 0EA7h ;# 
   314                           # 4310 "C:\Program Files\HI-TECH Software\PICC-18\9.80\include\PIC18F45K80.h"
   315  0000                     B2D2 equ 0EA8h ;# 
   316                           # 4332 "C:\Program Files\HI-TECH Software\PICC-18\9.80\include\PIC18F45K80.h"
   317  0000                     B2D3 equ 0EA9h ;# 
   318                           # 4354 "C:\Program Files\HI-TECH Software\PICC-18\9.80\include\PIC18F45K80.h"
   319  0000                     B2D4 equ 0EAAh ;# 
   320                           # 4376 "C:\Program Files\HI-TECH Software\PICC-18\9.80\include\PIC18F45K80.h"
   321  0000                     B2D5 equ 0EABh ;# 
   322                           # 4398 "C:\Program Files\HI-TECH Software\PICC-18\9.80\include\PIC18F45K80.h"
   323  0000                     B2D6 equ 0EACh ;# 
   324                           # 4420 "C:\Program Files\HI-TECH Software\PICC-18\9.80\include\PIC18F45K80.h"
   325  0000                     B2D7 equ 0EADh ;# 
   326                           # 4442 "C:\Program Files\HI-TECH Software\PICC-18\9.80\include\PIC18F45K80.h"
   327  0000                     CANSTAT_RO7 equ 0EAEh ;# 
   328                           # 4483 "C:\Program Files\HI-TECH Software\PICC-18\9.80\include\PIC18F45K80.h"
   329  0000                     CANCON_RO7 equ 0EAFh ;# 
   330                           # 4520 "C:\Program Files\HI-TECH Software\PICC-18\9.80\include\PIC18F45K80.h"
   331  0000                     B3CON equ 0EB0h ;# 
   332                           # 4631 "C:\Program Files\HI-TECH Software\PICC-18\9.80\include\PIC18F45K80.h"
   333  0000                     B3SIDH equ 0EB1h ;# 
   334                           # 4684 "C:\Program Files\HI-TECH Software\PICC-18\9.80\include\PIC18F45K80.h"
   335  0000                     B3SIDL equ 0EB2h ;# 
   336                           # 4739 "C:\Program Files\HI-TECH Software\PICC-18\9.80\include\PIC18F45K80.h"
   337  0000                     B3EIDH equ 0EB3h ;# 
   338                           # 4792 "C:\Program Files\HI-TECH Software\PICC-18\9.80\include\PIC18F45K80.h"
   339  0000                     B3EIDL equ 0EB4h ;# 
   340                           # 4845 "C:\Program Files\HI-TECH Software\PICC-18\9.80\include\PIC18F45K80.h"
   341  0000                     B3DLC equ 0EB5h ;# 
   342                           # 4899 "C:\Program Files\HI-TECH Software\PICC-18\9.80\include\PIC18F45K80.h"
   343  0000                     B3D0 equ 0EB6h ;# 
   344                           # 4921 "C:\Program Files\HI-TECH Software\PICC-18\9.80\include\PIC18F45K80.h"
   345  0000                     B3D1 equ 0EB7h ;# 
   346                           # 4943 "C:\Program Files\HI-TECH Software\PICC-18\9.80\include\PIC18F45K80.h"
   347  0000                     B3D2 equ 0EB8h ;# 
   348                           # 4965 "C:\Program Files\HI-TECH Software\PICC-18\9.80\include\PIC18F45K80.h"
   349  0000                     B3D3 equ 0EB9h ;# 
   350                           # 4987 "C:\Program Files\HI-TECH Software\PICC-18\9.80\include\PIC18F45K80.h"
   351  0000                     B3D4 equ 0EBAh ;# 
   352                           # 5009 "C:\Program Files\HI-TECH Software\PICC-18\9.80\include\PIC18F45K80.h"
   353  0000                     B3D5 equ 0EBBh ;# 
   354                           # 5031 "C:\Program Files\HI-TECH Software\PICC-18\9.80\include\PIC18F45K80.h"
   355  0000                     B3D6 equ 0EBCh ;# 
   356                           # 5053 "C:\Program Files\HI-TECH Software\PICC-18\9.80\include\PIC18F45K80.h"
   357  0000                     B3D7 equ 0EBDh ;# 
   358                           # 5075 "C:\Program Files\HI-TECH Software\PICC-18\9.80\include\PIC18F45K80.h"
   359  0000                     CANSTAT_RO6 equ 0EBEh ;# 
   360                           # 5116 "C:\Program Files\HI-TECH Software\PICC-18\9.80\include\PIC18F45K80.h"
   361  0000                     CANCON_RO6 equ 0EBFh ;# 
   362                           # 5153 "C:\Program Files\HI-TECH Software\PICC-18\9.80\include\PIC18F45K80.h"
   363  0000                     B4CON equ 0EC0h ;# 
   364                           # 5264 "C:\Program Files\HI-TECH Software\PICC-18\9.80\include\PIC18F45K80.h"
   365  0000                     B4SIDH equ 0EC1h ;# 
   366                           # 5317 "C:\Program Files\HI-TECH Software\PICC-18\9.80\include\PIC18F45K80.h"
   367  0000                     B4SIDL equ 0EC2h ;# 
   368                           # 5372 "C:\Program Files\HI-TECH Software\PICC-18\9.80\include\PIC18F45K80.h"
   369  0000                     B4EIDH equ 0EC3h ;# 
   370                           # 5425 "C:\Program Files\HI-TECH Software\PICC-18\9.80\include\PIC18F45K80.h"
   371  0000                     B4EIDL equ 0EC4h ;# 
   372                           # 5478 "C:\Program Files\HI-TECH Software\PICC-18\9.80\include\PIC18F45K80.h"
   373  0000                     B4DLC equ 0EC5h ;# 
   374                           # 5532 "C:\Program Files\HI-TECH Software\PICC-18\9.80\include\PIC18F45K80.h"
   375  0000                     B4D0 equ 0EC6h ;# 
   376                           # 5554 "C:\Program Files\HI-TECH Software\PICC-18\9.80\include\PIC18F45K80.h"
   377  0000                     B4D1 equ 0EC7h ;# 
   378                           # 5576 "C:\Program Files\HI-TECH Software\PICC-18\9.80\include\PIC18F45K80.h"
   379  0000                     B4D2 equ 0EC8h ;# 
   380                           # 5598 "C:\Program Files\HI-TECH Software\PICC-18\9.80\include\PIC18F45K80.h"
   381  0000                     B4D3 equ 0EC9h ;# 
   382                           # 5620 "C:\Program Files\HI-TECH Software\PICC-18\9.80\include\PIC18F45K80.h"
   383  0000                     B4D4 equ 0ECAh ;# 
   384                           # 5642 "C:\Program Files\HI-TECH Software\PICC-18\9.80\include\PIC18F45K80.h"
   385  0000                     B4D5 equ 0ECBh ;# 
   386                           # 5664 "C:\Program Files\HI-TECH Software\PICC-18\9.80\include\PIC18F45K80.h"
   387  0000                     B4D6 equ 0ECCh ;# 
   388                           # 5686 "C:\Program Files\HI-TECH Software\PICC-18\9.80\include\PIC18F45K80.h"
   389  0000                     B4D7 equ 0ECDh ;# 
   390                           # 5708 "C:\Program Files\HI-TECH Software\PICC-18\9.80\include\PIC18F45K80.h"
   391  0000                     CANSTAT_RO5 equ 0ECEh ;# 
   392                           # 5749 "C:\Program Files\HI-TECH Software\PICC-18\9.80\include\PIC18F45K80.h"
   393  0000                     CANCON_RO5 equ 0ECFh ;# 
   394                           # 5786 "C:\Program Files\HI-TECH Software\PICC-18\9.80\include\PIC18F45K80.h"
   395  0000                     B5CON equ 0ED0h ;# 
   396                           # 5897 "C:\Program Files\HI-TECH Software\PICC-18\9.80\include\PIC18F45K80.h"
   397  0000                     B5SIDH equ 0ED1h ;# 
   398                           # 5950 "C:\Program Files\HI-TECH Software\PICC-18\9.80\include\PIC18F45K80.h"
   399  0000                     B5SIDL equ 0ED2h ;# 
   400                           # 6005 "C:\Program Files\HI-TECH Software\PICC-18\9.80\include\PIC18F45K80.h"
   401  0000                     B5EIDH equ 0ED3h ;# 
   402                           # 6058 "C:\Program Files\HI-TECH Software\PICC-18\9.80\include\PIC18F45K80.h"
   403  0000                     B5EIDL equ 0ED4h ;# 
   404                           # 6111 "C:\Program Files\HI-TECH Software\PICC-18\9.80\include\PIC18F45K80.h"
   405  0000                     B5DLC equ 0ED5h ;# 
   406                           # 6165 "C:\Program Files\HI-TECH Software\PICC-18\9.80\include\PIC18F45K80.h"
   407  0000                     B5D0 equ 0ED6h ;# 
   408                           # 6187 "C:\Program Files\HI-TECH Software\PICC-18\9.80\include\PIC18F45K80.h"
   409  0000                     B5D1 equ 0ED7h ;# 
   410                           # 6209 "C:\Program Files\HI-TECH Software\PICC-18\9.80\include\PIC18F45K80.h"
   411  0000                     B5D2 equ 0ED8h ;# 
   412                           # 6231 "C:\Program Files\HI-TECH Software\PICC-18\9.80\include\PIC18F45K80.h"
   413  0000                     B5D3 equ 0ED9h ;# 
   414                           # 6253 "C:\Program Files\HI-TECH Software\PICC-18\9.80\include\PIC18F45K80.h"
   415  0000                     B5D4 equ 0EDAh ;# 
   416                           # 6275 "C:\Program Files\HI-TECH Software\PICC-18\9.80\include\PIC18F45K80.h"
   417  0000                     B5D5 equ 0EDBh ;# 
   418                           # 6297 "C:\Program Files\HI-TECH Software\PICC-18\9.80\include\PIC18F45K80.h"
   419  0000                     B5D6 equ 0EDCh ;# 
   420                           # 6319 "C:\Program Files\HI-TECH Software\PICC-18\9.80\include\PIC18F45K80.h"
   421  0000                     B5D7 equ 0EDDh ;# 
   422                           # 6341 "C:\Program Files\HI-TECH Software\PICC-18\9.80\include\PIC18F45K80.h"
   423  0000                     CANSTAT_RO4 equ 0EDEh ;# 
   424                           # 6382 "C:\Program Files\HI-TECH Software\PICC-18\9.80\include\PIC18F45K80.h"
   425  0000                     CANCON_RO4 equ 0EDFh ;# 
   426                           # 6419 "C:\Program Files\HI-TECH Software\PICC-18\9.80\include\PIC18F45K80.h"
   427  0000                     RXF0SIDH equ 0EE0h ;# 
   428                           # 6472 "C:\Program Files\HI-TECH Software\PICC-18\9.80\include\PIC18F45K80.h"
   429  0000                     RXF0SIDL equ 0EE1h ;# 
   430                           # 6519 "C:\Program Files\HI-TECH Software\PICC-18\9.80\include\PIC18F45K80.h"
   431  0000                     RXF0EIDH equ 0EE2h ;# 
   432                           # 6572 "C:\Program Files\HI-TECH Software\PICC-18\9.80\include\PIC18F45K80.h"
   433  0000                     RXF0EIDL equ 0EE3h ;# 
   434                           # 6625 "C:\Program Files\HI-TECH Software\PICC-18\9.80\include\PIC18F45K80.h"
   435  0000                     RXF1SIDH equ 0EE4h ;# 
   436                           # 6678 "C:\Program Files\HI-TECH Software\PICC-18\9.80\include\PIC18F45K80.h"
   437  0000                     RXF1SIDL equ 0EE5h ;# 
   438                           # 6725 "C:\Program Files\HI-TECH Software\PICC-18\9.80\include\PIC18F45K80.h"
   439  0000                     RXF1EIDH equ 0EE6h ;# 
   440                           # 6778 "C:\Program Files\HI-TECH Software\PICC-18\9.80\include\PIC18F45K80.h"
   441  0000                     RXF1EIDL equ 0EE7h ;# 
   442                           # 6831 "C:\Program Files\HI-TECH Software\PICC-18\9.80\include\PIC18F45K80.h"
   443  0000                     RXF2SIDH equ 0EE8h ;# 
   444                           # 6884 "C:\Program Files\HI-TECH Software\PICC-18\9.80\include\PIC18F45K80.h"
   445  0000                     RXF2SIDL equ 0EE9h ;# 
   446                           # 6931 "C:\Program Files\HI-TECH Software\PICC-18\9.80\include\PIC18F45K80.h"
   447  0000                     RXF2EIDH equ 0EEAh ;# 
   448                           # 6984 "C:\Program Files\HI-TECH Software\PICC-18\9.80\include\PIC18F45K80.h"
   449  0000                     RXF2EIDL equ 0EEBh ;# 
   450                           # 7037 "C:\Program Files\HI-TECH Software\PICC-18\9.80\include\PIC18F45K80.h"
   451  0000                     RXF3SIDH equ 0EECh ;# 
   452                           # 7090 "C:\Program Files\HI-TECH Software\PICC-18\9.80\include\PIC18F45K80.h"
   453  0000                     RXF3SIDL equ 0EEDh ;# 
   454                           # 7137 "C:\Program Files\HI-TECH Software\PICC-18\9.80\include\PIC18F45K80.h"
   455  0000                     RXF3EIDH equ 0EEEh ;# 
   456                           # 7190 "C:\Program Files\HI-TECH Software\PICC-18\9.80\include\PIC18F45K80.h"
   457  0000                     RXF3EIDL equ 0EEFh ;# 
   458                           # 7243 "C:\Program Files\HI-TECH Software\PICC-18\9.80\include\PIC18F45K80.h"
   459  0000                     RXF4SIDH equ 0EF0h ;# 
   460                           # 7296 "C:\Program Files\HI-TECH Software\PICC-18\9.80\include\PIC18F45K80.h"
   461  0000                     RXF4SIDL equ 0EF1h ;# 
   462                           # 7343 "C:\Program Files\HI-TECH Software\PICC-18\9.80\include\PIC18F45K80.h"
   463  0000                     RXF4EIDH equ 0EF2h ;# 
   464                           # 7396 "C:\Program Files\HI-TECH Software\PICC-18\9.80\include\PIC18F45K80.h"
   465  0000                     RXF4EIDL equ 0EF3h ;# 
   466                           # 7449 "C:\Program Files\HI-TECH Software\PICC-18\9.80\include\PIC18F45K80.h"
   467  0000                     RXF5SIDH equ 0EF4h ;# 
   468                           # 7502 "C:\Program Files\HI-TECH Software\PICC-18\9.80\include\PIC18F45K80.h"
   469  0000                     RXF5SIDL equ 0EF5h ;# 
   470                           # 7549 "C:\Program Files\HI-TECH Software\PICC-18\9.80\include\PIC18F45K80.h"
   471  0000                     RXF5EIDH equ 0EF6h ;# 
   472                           # 7602 "C:\Program Files\HI-TECH Software\PICC-18\9.80\include\PIC18F45K80.h"
   473  0000                     RXF5EIDL equ 0EF7h ;# 
   474                           # 7655 "C:\Program Files\HI-TECH Software\PICC-18\9.80\include\PIC18F45K80.h"
   475  0000                     RXM0SIDH equ 0EF8h ;# 
   476                           # 7708 "C:\Program Files\HI-TECH Software\PICC-18\9.80\include\PIC18F45K80.h"
   477  0000                     RXM0SIDL equ 0EF9h ;# 
   478                           # 7755 "C:\Program Files\HI-TECH Software\PICC-18\9.80\include\PIC18F45K80.h"
   479  0000                     RXM0EIDH equ 0EFAh ;# 
   480                           # 7808 "C:\Program Files\HI-TECH Software\PICC-18\9.80\include\PIC18F45K80.h"
   481  0000                     RXM0EIDL equ 0EFBh ;# 
   482                           # 7861 "C:\Program Files\HI-TECH Software\PICC-18\9.80\include\PIC18F45K80.h"
   483  0000                     RXM1SIDH equ 0EFCh ;# 
   484                           # 7914 "C:\Program Files\HI-TECH Software\PICC-18\9.80\include\PIC18F45K80.h"
   485  0000                     RXM1SIDL equ 0EFDh ;# 
   486                           # 7961 "C:\Program Files\HI-TECH Software\PICC-18\9.80\include\PIC18F45K80.h"
   487  0000                     RXM1EIDH equ 0EFEh ;# 
   488                           # 8014 "C:\Program Files\HI-TECH Software\PICC-18\9.80\include\PIC18F45K80.h"
   489  0000                     RXM1EIDL equ 0EFFh ;# 
   490                           # 8067 "C:\Program Files\HI-TECH Software\PICC-18\9.80\include\PIC18F45K80.h"
   491  0000                     TXB2CON equ 0F00h ;# 
   492                           # 8116 "C:\Program Files\HI-TECH Software\PICC-18\9.80\include\PIC18F45K80.h"
   493  0000                     TXB2SIDH equ 0F01h ;# 
   494                           # 8169 "C:\Program Files\HI-TECH Software\PICC-18\9.80\include\PIC18F45K80.h"
   495  0000                     TXB2SIDL equ 0F02h ;# 
   496                           # 8216 "C:\Program Files\HI-TECH Software\PICC-18\9.80\include\PIC18F45K80.h"
   497  0000                     TXB2EIDH equ 0F03h ;# 
   498                           # 8269 "C:\Program Files\HI-TECH Software\PICC-18\9.80\include\PIC18F45K80.h"
   499  0000                     TXB2EIDL equ 0F04h ;# 
   500                           # 8322 "C:\Program Files\HI-TECH Software\PICC-18\9.80\include\PIC18F45K80.h"
   501  0000                     TXB2DLC equ 0F05h ;# 
   502                           # 8361 "C:\Program Files\HI-TECH Software\PICC-18\9.80\include\PIC18F45K80.h"
   503  0000                     TXB2D0 equ 0F06h ;# 
   504                           # 8383 "C:\Program Files\HI-TECH Software\PICC-18\9.80\include\PIC18F45K80.h"
   505  0000                     TXB2D1 equ 0F07h ;# 
   506                           # 8405 "C:\Program Files\HI-TECH Software\PICC-18\9.80\include\PIC18F45K80.h"
   507  0000                     TXB2D2 equ 0F08h ;# 
   508                           # 8427 "C:\Program Files\HI-TECH Software\PICC-18\9.80\include\PIC18F45K80.h"
   509  0000                     TXB2D3 equ 0F09h ;# 
   510                           # 8449 "C:\Program Files\HI-TECH Software\PICC-18\9.80\include\PIC18F45K80.h"
   511  0000                     TXB2D4 equ 0F0Ah ;# 
   512                           # 8471 "C:\Program Files\HI-TECH Software\PICC-18\9.80\include\PIC18F45K80.h"
   513  0000                     TXB2D5 equ 0F0Bh ;# 
   514                           # 8493 "C:\Program Files\HI-TECH Software\PICC-18\9.80\include\PIC18F45K80.h"
   515  0000                     TXB2D6 equ 0F0Ch ;# 
   516                           # 8515 "C:\Program Files\HI-TECH Software\PICC-18\9.80\include\PIC18F45K80.h"
   517  0000                     TXB2D7 equ 0F0Dh ;# 
   518                           # 8537 "C:\Program Files\HI-TECH Software\PICC-18\9.80\include\PIC18F45K80.h"
   519  0000                     CANSTAT_RO3 equ 0F0Eh ;# 
   520                           # 8578 "C:\Program Files\HI-TECH Software\PICC-18\9.80\include\PIC18F45K80.h"
   521  0000                     CANCON_RO3 equ 0F0Fh ;# 
   522                           # 8615 "C:\Program Files\HI-TECH Software\PICC-18\9.80\include\PIC18F45K80.h"
   523  0000                     TXB1CON equ 0F10h ;# 
   524                           # 8664 "C:\Program Files\HI-TECH Software\PICC-18\9.80\include\PIC18F45K80.h"
   525  0000                     TXB1SIDH equ 0F11h ;# 
   526                           # 8717 "C:\Program Files\HI-TECH Software\PICC-18\9.80\include\PIC18F45K80.h"
   527  0000                     TXB1SIDL equ 0F12h ;# 
   528                           # 8764 "C:\Program Files\HI-TECH Software\PICC-18\9.80\include\PIC18F45K80.h"
   529  0000                     TXB1EIDH equ 0F13h ;# 
   530                           # 8817 "C:\Program Files\HI-TECH Software\PICC-18\9.80\include\PIC18F45K80.h"
   531  0000                     TXB1EIDL equ 0F14h ;# 
   532                           # 8870 "C:\Program Files\HI-TECH Software\PICC-18\9.80\include\PIC18F45K80.h"
   533  0000                     TXB1DLC equ 0F15h ;# 
   534                           # 8909 "C:\Program Files\HI-TECH Software\PICC-18\9.80\include\PIC18F45K80.h"
   535  0000                     TXB1D0 equ 0F16h ;# 
   536                           # 8931 "C:\Program Files\HI-TECH Software\PICC-18\9.80\include\PIC18F45K80.h"
   537  0000                     TXB1D1 equ 0F17h ;# 
   538                           # 8953 "C:\Program Files\HI-TECH Software\PICC-18\9.80\include\PIC18F45K80.h"
   539  0000                     TXB1D2 equ 0F18h ;# 
   540                           # 8975 "C:\Program Files\HI-TECH Software\PICC-18\9.80\include\PIC18F45K80.h"
   541  0000                     TXB1D3 equ 0F19h ;# 
   542                           # 8997 "C:\Program Files\HI-TECH Software\PICC-18\9.80\include\PIC18F45K80.h"
   543  0000                     TXB1D4 equ 0F1Ah ;# 
   544                           # 9019 "C:\Program Files\HI-TECH Software\PICC-18\9.80\include\PIC18F45K80.h"
   545  0000                     TXB1D5 equ 0F1Bh ;# 
   546                           # 9041 "C:\Program Files\HI-TECH Software\PICC-18\9.80\include\PIC18F45K80.h"
   547  0000                     TXB1D6 equ 0F1Ch ;# 
   548                           # 9063 "C:\Program Files\HI-TECH Software\PICC-18\9.80\include\PIC18F45K80.h"
   549  0000                     TXB1D7 equ 0F1Dh ;# 
   550                           # 9085 "C:\Program Files\HI-TECH Software\PICC-18\9.80\include\PIC18F45K80.h"
   551  0000                     CANSTAT_RO2 equ 0F1Eh ;# 
   552                           # 9126 "C:\Program Files\HI-TECH Software\PICC-18\9.80\include\PIC18F45K80.h"
   553  0000                     CANCON_RO2 equ 0F1Fh ;# 
   554                           # 9163 "C:\Program Files\HI-TECH Software\PICC-18\9.80\include\PIC18F45K80.h"
   555  0000                     TXB0CON equ 0F20h ;# 
   556                           # 9212 "C:\Program Files\HI-TECH Software\PICC-18\9.80\include\PIC18F45K80.h"
   557  0000                     TXB0SIDH equ 0F21h ;# 
   558                           # 9265 "C:\Program Files\HI-TECH Software\PICC-18\9.80\include\PIC18F45K80.h"
   559  0000                     TXB0SIDL equ 0F22h ;# 
   560                           # 9312 "C:\Program Files\HI-TECH Software\PICC-18\9.80\include\PIC18F45K80.h"
   561  0000                     TXB0EIDH equ 0F23h ;# 
   562                           # 9365 "C:\Program Files\HI-TECH Software\PICC-18\9.80\include\PIC18F45K80.h"
   563  0000                     TXB0EIDL equ 0F24h ;# 
   564                           # 9418 "C:\Program Files\HI-TECH Software\PICC-18\9.80\include\PIC18F45K80.h"
   565  0000                     TXB0DLC equ 0F25h ;# 
   566                           # 9457 "C:\Program Files\HI-TECH Software\PICC-18\9.80\include\PIC18F45K80.h"
   567  0000                     TXB0D0 equ 0F26h ;# 
   568                           # 9479 "C:\Program Files\HI-TECH Software\PICC-18\9.80\include\PIC18F45K80.h"
   569  0000                     TXB0D1 equ 0F27h ;# 
   570                           # 9501 "C:\Program Files\HI-TECH Software\PICC-18\9.80\include\PIC18F45K80.h"
   571  0000                     TXB0D2 equ 0F28h ;# 
   572                           # 9523 "C:\Program Files\HI-TECH Software\PICC-18\9.80\include\PIC18F45K80.h"
   573  0000                     TXB0D3 equ 0F29h ;# 
   574                           # 9545 "C:\Program Files\HI-TECH Software\PICC-18\9.80\include\PIC18F45K80.h"
   575  0000                     TXB0D4 equ 0F2Ah ;# 
   576                           # 9567 "C:\Program Files\HI-TECH Software\PICC-18\9.80\include\PIC18F45K80.h"
   577  0000                     TXB0D5 equ 0F2Bh ;# 
   578                           # 9589 "C:\Program Files\HI-TECH Software\PICC-18\9.80\include\PIC18F45K80.h"
   579  0000                     TXB0D6 equ 0F2Ch ;# 
   580                           # 9611 "C:\Program Files\HI-TECH Software\PICC-18\9.80\include\PIC18F45K80.h"
   581  0000                     TXB0D7 equ 0F2Dh ;# 
   582                           # 9633 "C:\Program Files\HI-TECH Software\PICC-18\9.80\include\PIC18F45K80.h"
   583  0000                     CANSTAT_RO1 equ 0F2Eh ;# 
   584                           # 9674 "C:\Program Files\HI-TECH Software\PICC-18\9.80\include\PIC18F45K80.h"
   585  0000                     CANCON_RO1 equ 0F2Fh ;# 
   586                           # 9711 "C:\Program Files\HI-TECH Software\PICC-18\9.80\include\PIC18F45K80.h"
   587  0000                     RXB1CON equ 0F30h ;# 
   588                           # 9781 "C:\Program Files\HI-TECH Software\PICC-18\9.80\include\PIC18F45K80.h"
   589  0000                     RXB1SIDH equ 0F31h ;# 
   590                           # 9834 "C:\Program Files\HI-TECH Software\PICC-18\9.80\include\PIC18F45K80.h"
   591  0000                     RXB1SIDL equ 0F32h ;# 
   592                           # 9885 "C:\Program Files\HI-TECH Software\PICC-18\9.80\include\PIC18F45K80.h"
   593  0000                     RXB1EIDH equ 0F33h ;# 
   594                           # 9938 "C:\Program Files\HI-TECH Software\PICC-18\9.80\include\PIC18F45K80.h"
   595  0000                     RXB1EIDL equ 0F34h ;# 
   596                           # 9991 "C:\Program Files\HI-TECH Software\PICC-18\9.80\include\PIC18F45K80.h"
   597  0000                     RXB1DLC equ 0F35h ;# 
   598                           # 10040 "C:\Program Files\HI-TECH Software\PICC-18\9.80\include\PIC18F45K80.h"
   599  0000                     RXB1D0 equ 0F36h ;# 
   600                           # 10062 "C:\Program Files\HI-TECH Software\PICC-18\9.80\include\PIC18F45K80.h"
   601  0000                     RXB1D1 equ 0F37h ;# 
   602                           # 10084 "C:\Program Files\HI-TECH Software\PICC-18\9.80\include\PIC18F45K80.h"
   603  0000                     RXB1D2 equ 0F38h ;# 
   604                           # 10106 "C:\Program Files\HI-TECH Software\PICC-18\9.80\include\PIC18F45K80.h"
   605  0000                     RXB1D3 equ 0F39h ;# 
   606                           # 10128 "C:\Program Files\HI-TECH Software\PICC-18\9.80\include\PIC18F45K80.h"
   607  0000                     RXB1D4 equ 0F3Ah ;# 
   608                           # 10150 "C:\Program Files\HI-TECH Software\PICC-18\9.80\include\PIC18F45K80.h"
   609  0000                     RXB1D5 equ 0F3Bh ;# 
   610                           # 10172 "C:\Program Files\HI-TECH Software\PICC-18\9.80\include\PIC18F45K80.h"
   611  0000                     RXB1D6 equ 0F3Ch ;# 
   612                           # 10194 "C:\Program Files\HI-TECH Software\PICC-18\9.80\include\PIC18F45K80.h"
   613  0000                     RXB1D7 equ 0F3Dh ;# 
   614                           # 10216 "C:\Program Files\HI-TECH Software\PICC-18\9.80\include\PIC18F45K80.h"
   615  0000                     CANSTAT_RO0 equ 0F3Eh ;# 
   616                           # 10257 "C:\Program Files\HI-TECH Software\PICC-18\9.80\include\PIC18F45K80.h"
   617  0000                     CANCON_RO0 equ 0F3Fh ;# 
   618                           # 10294 "C:\Program Files\HI-TECH Software\PICC-18\9.80\include\PIC18F45K80.h"
   619  0000                     PSPCON equ 0F46h ;# 
   620                           # 10310 "C:\Program Files\HI-TECH Software\PICC-18\9.80\include\PIC18F45K80.h"
   621  0000                     CCP5CON equ 0F47h ;# 
   622                           # 10336 "C:\Program Files\HI-TECH Software\PICC-18\9.80\include\PIC18F45K80.h"
   623  0000                     CCPR5 equ 0F48h ;# 
   624                           # 10342 "C:\Program Files\HI-TECH Software\PICC-18\9.80\include\PIC18F45K80.h"
   625  0000                     CCPR5L equ 0F48h ;# 
   626                           # 10354 "C:\Program Files\HI-TECH Software\PICC-18\9.80\include\PIC18F45K80.h"
   627  0000                     CCPR5H equ 0F49h ;# 
   628                           # 10366 "C:\Program Files\HI-TECH Software\PICC-18\9.80\include\PIC18F45K80.h"
   629  0000                     CCP4CON equ 0F4Ah ;# 
   630                           # 10392 "C:\Program Files\HI-TECH Software\PICC-18\9.80\include\PIC18F45K80.h"
   631  0000                     CCPR4 equ 0F4Bh ;# 
   632                           # 10398 "C:\Program Files\HI-TECH Software\PICC-18\9.80\include\PIC18F45K80.h"
   633  0000                     CCPR4L equ 0F4Bh ;# 
   634                           # 10410 "C:\Program Files\HI-TECH Software\PICC-18\9.80\include\PIC18F45K80.h"
   635  0000                     CCPR4H equ 0F4Ch ;# 
   636                           # 10422 "C:\Program Files\HI-TECH Software\PICC-18\9.80\include\PIC18F45K80.h"
   637  0000                     CCP3CON equ 0F4Dh ;# 
   638                           # 10448 "C:\Program Files\HI-TECH Software\PICC-18\9.80\include\PIC18F45K80.h"
   639  0000                     CCPR3 equ 0F4Eh ;# 
   640                           # 10454 "C:\Program Files\HI-TECH Software\PICC-18\9.80\include\PIC18F45K80.h"
   641  0000                     CCPR3L equ 0F4Eh ;# 
   642                           # 10466 "C:\Program Files\HI-TECH Software\PICC-18\9.80\include\PIC18F45K80.h"
   643  0000                     CCPR3H equ 0F4Fh ;# 
   644                           # 10478 "C:\Program Files\HI-TECH Software\PICC-18\9.80\include\PIC18F45K80.h"
   645  0000                     CCP2CON equ 0F50h ;# 
   646                           # 10483 "C:\Program Files\HI-TECH Software\PICC-18\9.80\include\PIC18F45K80.h"
   647  0000                     ECCP2CON equ 0F50h ;# 
   648                           # 10529 "C:\Program Files\HI-TECH Software\PICC-18\9.80\include\PIC18F45K80.h"
   649  0000                     CCPR2 equ 0F51h ;# 
   650                           # 10535 "C:\Program Files\HI-TECH Software\PICC-18\9.80\include\PIC18F45K80.h"
   651  0000                     CCPR2L equ 0F51h ;# 
   652                           # 10547 "C:\Program Files\HI-TECH Software\PICC-18\9.80\include\PIC18F45K80.h"
   653  0000                     CCPR2H equ 0F52h ;# 
   654                           # 10559 "C:\Program Files\HI-TECH Software\PICC-18\9.80\include\PIC18F45K80.h"
   655  0000                     CTMUICON equ 0F53h ;# 
   656                           # 10582 "C:\Program Files\HI-TECH Software\PICC-18\9.80\include\PIC18F45K80.h"
   657  0000                     CTMUCONL equ 0F54h ;# 
   658                           # 10607 "C:\Program Files\HI-TECH Software\PICC-18\9.80\include\PIC18F45K80.h"
   659  0000                     CTMUCONH equ 0F55h ;# 
   660                           # 10626 "C:\Program Files\HI-TECH Software\PICC-18\9.80\include\PIC18F45K80.h"
   661  0000                     PADCFG1 equ 0F56h ;# 
   662                           # 10644 "C:\Program Files\HI-TECH Software\PICC-18\9.80\include\PIC18F45K80.h"
   663  0000                     PMD2 equ 0F57h ;# 
   664                           # 10658 "C:\Program Files\HI-TECH Software\PICC-18\9.80\include\PIC18F45K80.h"
   665  0000                     PMD1 equ 0F58h ;# 
   666                           # 10680 "C:\Program Files\HI-TECH Software\PICC-18\9.80\include\PIC18F45K80.h"
   667  0000                     PMD0 equ 0F59h ;# 
   668                           # 10707 "C:\Program Files\HI-TECH Software\PICC-18\9.80\include\PIC18F45K80.h"
   669  0000                     IOCB equ 0F5Ah ;# 
   670                           # 10723 "C:\Program Files\HI-TECH Software\PICC-18\9.80\include\PIC18F45K80.h"
   671  0000                     WPUB equ 0F5Bh ;# 
   672                           # 10742 "C:\Program Files\HI-TECH Software\PICC-18\9.80\include\PIC18F45K80.h"
   673  0000                     ANCON1 equ 0F5Ch ;# 
   674                           # 10787 "C:\Program Files\HI-TECH Software\PICC-18\9.80\include\PIC18F45K80.h"
   675  0000                     ANCON0 equ 0F5Dh ;# 
   676                           # 10837 "C:\Program Files\HI-TECH Software\PICC-18\9.80\include\PIC18F45K80.h"
   677  0000                     CM2CON equ 0F5Eh ;# 
   678                           # 10842 "C:\Program Files\HI-TECH Software\PICC-18\9.80\include\PIC18F45K80.h"
   679  0000                     CM2CON1 equ 0F5Eh ;# 
   680                           # 10946 "C:\Program Files\HI-TECH Software\PICC-18\9.80\include\PIC18F45K80.h"
   681  0000                     CM1CON equ 0F5Fh ;# 
   682                           # 10951 "C:\Program Files\HI-TECH Software\PICC-18\9.80\include\PIC18F45K80.h"
   683  0000                     CM1CON1 equ 0F5Fh ;# 
   684                           # 11069 "C:\Program Files\HI-TECH Software\PICC-18\9.80\include\PIC18F45K80.h"
   685  0000                     RXB0CON equ 0F60h ;# 
   686                           # 11143 "C:\Program Files\HI-TECH Software\PICC-18\9.80\include\PIC18F45K80.h"
   687  0000                     RXB0SIDH equ 0F61h ;# 
   688                           # 11196 "C:\Program Files\HI-TECH Software\PICC-18\9.80\include\PIC18F45K80.h"
   689  0000                     RXB0SIDL equ 0F62h ;# 
   690                           # 11247 "C:\Program Files\HI-TECH Software\PICC-18\9.80\include\PIC18F45K80.h"
   691  0000                     RXB0EIDH equ 0F63h ;# 
   692                           # 11300 "C:\Program Files\HI-TECH Software\PICC-18\9.80\include\PIC18F45K80.h"
   693  0000                     RXB0EIDL equ 0F64h ;# 
   694                           # 11353 "C:\Program Files\HI-TECH Software\PICC-18\9.80\include\PIC18F45K80.h"
   695  0000                     RXB0DLC equ 0F65h ;# 
   696                           # 11402 "C:\Program Files\HI-TECH Software\PICC-18\9.80\include\PIC18F45K80.h"
   697  0000                     RXB0D0 equ 0F66h ;# 
   698                           # 11424 "C:\Program Files\HI-TECH Software\PICC-18\9.80\include\PIC18F45K80.h"
   699  0000                     RXB0D1 equ 0F67h ;# 
   700                           # 11446 "C:\Program Files\HI-TECH Software\PICC-18\9.80\include\PIC18F45K80.h"
   701  0000                     RXB0D2 equ 0F68h ;# 
   702                           # 11468 "C:\Program Files\HI-TECH Software\PICC-18\9.80\include\PIC18F45K80.h"
   703  0000                     RXB0D3 equ 0F69h ;# 
   704                           # 11490 "C:\Program Files\HI-TECH Software\PICC-18\9.80\include\PIC18F45K80.h"
   705  0000                     RXB0D4 equ 0F6Ah ;# 
   706                           # 11512 "C:\Program Files\HI-TECH Software\PICC-18\9.80\include\PIC18F45K80.h"
   707  0000                     RXB0D5 equ 0F6Bh ;# 
   708                           # 11534 "C:\Program Files\HI-TECH Software\PICC-18\9.80\include\PIC18F45K80.h"
   709  0000                     RXB0D6 equ 0F6Ch ;# 
   710                           # 11556 "C:\Program Files\HI-TECH Software\PICC-18\9.80\include\PIC18F45K80.h"
   711  0000                     RXB0D7 equ 0F6Dh ;# 
   712                           # 11578 "C:\Program Files\HI-TECH Software\PICC-18\9.80\include\PIC18F45K80.h"
   713  0000                     CANSTAT equ 0F6Eh ;# 
   714                           # 11619 "C:\Program Files\HI-TECH Software\PICC-18\9.80\include\PIC18F45K80.h"
   715  0000                     CANCON equ 0F6Fh ;# 
   716                           # 11656 "C:\Program Files\HI-TECH Software\PICC-18\9.80\include\PIC18F45K80.h"
   717  0000                     CIOCON equ 0F70h ;# 
   718                           # 11673 "C:\Program Files\HI-TECH Software\PICC-18\9.80\include\PIC18F45K80.h"
   719  0000                     COMSTAT equ 0F71h ;# 
   720                           # 11722 "C:\Program Files\HI-TECH Software\PICC-18\9.80\include\PIC18F45K80.h"
   721  0000                     ECANCON equ 0F72h ;# 
   722                           # 11746 "C:\Program Files\HI-TECH Software\PICC-18\9.80\include\PIC18F45K80.h"
   723  0000                     EEDATA equ 0F73h ;# 
   724                           # 11758 "C:\Program Files\HI-TECH Software\PICC-18\9.80\include\PIC18F45K80.h"
   725  0000                     EEADR equ 0F74h ;# 
   726                           # 11770 "C:\Program Files\HI-TECH Software\PICC-18\9.80\include\PIC18F45K80.h"
   727  0000                     EEADRH equ 0F75h ;# 
   728                           # 11782 "C:\Program Files\HI-TECH Software\PICC-18\9.80\include\PIC18F45K80.h"
   729  0000                     PIE5 equ 0F76h ;# 
   730                           # 11807 "C:\Program Files\HI-TECH Software\PICC-18\9.80\include\PIC18F45K80.h"
   731  0000                     PIR5 equ 0F77h ;# 
   732                           # 11832 "C:\Program Files\HI-TECH Software\PICC-18\9.80\include\PIC18F45K80.h"
   733  0000                     IPR5 equ 0F78h ;# 
   734                           # 11872 "C:\Program Files\HI-TECH Software\PICC-18\9.80\include\PIC18F45K80.h"
   735  0000                     TXREG2 equ 0F79h ;# 
   736                           # 11884 "C:\Program Files\HI-TECH Software\PICC-18\9.80\include\PIC18F45K80.h"
   737  0000                     RCREG2 equ 0F7Ah ;# 
   738                           # 11896 "C:\Program Files\HI-TECH Software\PICC-18\9.80\include\PIC18F45K80.h"
   739  0000                     SPBRG2 equ 0F7Bh ;# 
   740                           # 11908 "C:\Program Files\HI-TECH Software\PICC-18\9.80\include\PIC18F45K80.h"
   741  0000                     SPBRGH2 equ 0F7Ch ;# 
   742                           # 11920 "C:\Program Files\HI-TECH Software\PICC-18\9.80\include\PIC18F45K80.h"
   743  0000                     SPBRGH1 equ 0F7Dh ;# 
   744                           # 11932 "C:\Program Files\HI-TECH Software\PICC-18\9.80\include\PIC18F45K80.h"
   745  0000                     EECON2 equ 0F7Eh ;# 
   746                           # 11944 "C:\Program Files\HI-TECH Software\PICC-18\9.80\include\PIC18F45K80.h"
   747  0000                     EECON1 equ 0F7Fh ;# 
   748                           # 11967 "C:\Program Files\HI-TECH Software\PICC-18\9.80\include\PIC18F45K80.h"
   749  0000                     PORTA equ 0F80h ;# 
   750                           # 12004 "C:\Program Files\HI-TECH Software\PICC-18\9.80\include\PIC18F45K80.h"
   751  0000                     PORTB equ 0F81h ;# 
   752                           # 12030 "C:\Program Files\HI-TECH Software\PICC-18\9.80\include\PIC18F45K80.h"
   753  0000                     PORTC equ 0F82h ;# 
   754                           # 12064 "C:\Program Files\HI-TECH Software\PICC-18\9.80\include\PIC18F45K80.h"
   755  0000                     PORTD equ 0F83h ;# 
   756                           # 12090 "C:\Program Files\HI-TECH Software\PICC-18\9.80\include\PIC18F45K80.h"
   757  0000                     PORTE equ 0F84h ;# 
   758                           # 12190 "C:\Program Files\HI-TECH Software\PICC-18\9.80\include\PIC18F45K80.h"
   759  0000                     TMR4 equ 0F87h ;# 
   760                           # 12202 "C:\Program Files\HI-TECH Software\PICC-18\9.80\include\PIC18F45K80.h"
   761  0000                     T4CON equ 0F88h ;# 
   762                           # 12225 "C:\Program Files\HI-TECH Software\PICC-18\9.80\include\PIC18F45K80.h"
   763  0000                     LATA equ 0F89h ;# 
   764                           # 12278 "C:\Program Files\HI-TECH Software\PICC-18\9.80\include\PIC18F45K80.h"
   765  0000                     LATB equ 0F8Ah ;# 
   766                           # 12331 "C:\Program Files\HI-TECH Software\PICC-18\9.80\include\PIC18F45K80.h"
   767  0000                     LATC equ 0F8Bh ;# 
   768                           # 12384 "C:\Program Files\HI-TECH Software\PICC-18\9.80\include\PIC18F45K80.h"
   769  0000                     LATD equ 0F8Ch ;# 
   770                           # 12437 "C:\Program Files\HI-TECH Software\PICC-18\9.80\include\PIC18F45K80.h"
   771  0000                     LATE equ 0F8Dh ;# 
   772                           # 12485 "C:\Program Files\HI-TECH Software\PICC-18\9.80\include\PIC18F45K80.h"
   773  0000                     SLRCON equ 0F90h ;# 
   774                           # 12501 "C:\Program Files\HI-TECH Software\PICC-18\9.80\include\PIC18F45K80.h"
   775  0000                     ODCON equ 0F91h ;# 
   776                           # 12520 "C:\Program Files\HI-TECH Software\PICC-18\9.80\include\PIC18F45K80.h"
   777  0000                     TRISA equ 0F92h ;# 
   778                           # 12542 "C:\Program Files\HI-TECH Software\PICC-18\9.80\include\PIC18F45K80.h"
   779  0000                     TRISB equ 0F93h ;# 
   780                           # 12564 "C:\Program Files\HI-TECH Software\PICC-18\9.80\include\PIC18F45K80.h"
   781  0000                     TRISC equ 0F94h ;# 
   782                           # 12586 "C:\Program Files\HI-TECH Software\PICC-18\9.80\include\PIC18F45K80.h"
   783  0000                     TRISD equ 0F95h ;# 
   784                           # 12608 "C:\Program Files\HI-TECH Software\PICC-18\9.80\include\PIC18F45K80.h"
   785  0000                     TRISE equ 0F96h ;# 
   786                           # 12625 "C:\Program Files\HI-TECH Software\PICC-18\9.80\include\PIC18F45K80.h"
   787  0000                     CCPTMRS equ 0F99h ;# 
   788                           # 12641 "C:\Program Files\HI-TECH Software\PICC-18\9.80\include\PIC18F45K80.h"
   789  0000                     REFOCON equ 0F9Ah ;# 
   790                           # 12663 "C:\Program Files\HI-TECH Software\PICC-18\9.80\include\PIC18F45K80.h"
   791  0000                     OSCTUNE equ 0F9Bh ;# 
   792                           # 12685 "C:\Program Files\HI-TECH Software\PICC-18\9.80\include\PIC18F45K80.h"
   793  0000                     PSTR1CON equ 0F9Ch ;# 
   794                           # 12708 "C:\Program Files\HI-TECH Software\PICC-18\9.80\include\PIC18F45K80.h"
   795  0000                     PIE1 equ 0F9Dh ;# 
   796                           # 12732 "C:\Program Files\HI-TECH Software\PICC-18\9.80\include\PIC18F45K80.h"
   797  0000                     PIR1 equ 0F9Eh ;# 
   798                           # 12756 "C:\Program Files\HI-TECH Software\PICC-18\9.80\include\PIC18F45K80.h"
   799  0000                     IPR1 equ 0F9Fh ;# 
   800                           # 12780 "C:\Program Files\HI-TECH Software\PICC-18\9.80\include\PIC18F45K80.h"
   801  0000                     PIE2 equ 0FA0h ;# 
   802                           # 12801 "C:\Program Files\HI-TECH Software\PICC-18\9.80\include\PIC18F45K80.h"
   803  0000                     PIR2 equ 0FA1h ;# 
   804                           # 12822 "C:\Program Files\HI-TECH Software\PICC-18\9.80\include\PIC18F45K80.h"
   805  0000                     IPR2 equ 0FA2h ;# 
   806                           # 12843 "C:\Program Files\HI-TECH Software\PICC-18\9.80\include\PIC18F45K80.h"
   807  0000                     PIE3 equ 0FA3h ;# 
   808                           # 12884 "C:\Program Files\HI-TECH Software\PICC-18\9.80\include\PIC18F45K80.h"
   809  0000                     PIR3 equ 0FA4h ;# 
   810                           # 12909 "C:\Program Files\HI-TECH Software\PICC-18\9.80\include\PIC18F45K80.h"
   811  0000                     IPR3 equ 0FA5h ;# 
   812                           # 12934 "C:\Program Files\HI-TECH Software\PICC-18\9.80\include\PIC18F45K80.h"
   813  0000                     RCSTA2 equ 0FA6h ;# 
   814                           # 12974 "C:\Program Files\HI-TECH Software\PICC-18\9.80\include\PIC18F45K80.h"
   815  0000                     BAUDCON1 equ 0FA7h ;# 
   816                           # 13048 "C:\Program Files\HI-TECH Software\PICC-18\9.80\include\PIC18F45K80.h"
   817  0000                     HLVDCON equ 0FA8h ;# 
   818                           # 13070 "C:\Program Files\HI-TECH Software\PICC-18\9.80\include\PIC18F45K80.h"
   819  0000                     PR4 equ 0FA9h ;# 
   820                           # 13082 "C:\Program Files\HI-TECH Software\PICC-18\9.80\include\PIC18F45K80.h"
   821  0000                     T1GCON equ 0FAAh ;# 
   822                           # 13118 "C:\Program Files\HI-TECH Software\PICC-18\9.80\include\PIC18F45K80.h"
   823  0000                     RCSTA1 equ 0FABh ;# 
   824                           # 13123 "C:\Program Files\HI-TECH Software\PICC-18\9.80\include\PIC18F45K80.h"
   825  0000                     RCSTA equ 0FABh ;# 
   826                           # 13221 "C:\Program Files\HI-TECH Software\PICC-18\9.80\include\PIC18F45K80.h"
   827  0000                     TXSTA1 equ 0FACh ;# 
   828                           # 13226 "C:\Program Files\HI-TECH Software\PICC-18\9.80\include\PIC18F45K80.h"
   829  0000                     TXSTA equ 0FACh ;# 
   830                           # 13304 "C:\Program Files\HI-TECH Software\PICC-18\9.80\include\PIC18F45K80.h"
   831  0000                     TXREG1 equ 0FADh ;# 
   832                           # 13309 "C:\Program Files\HI-TECH Software\PICC-18\9.80\include\PIC18F45K80.h"
   833  0000                     TXREG equ 0FADh ;# 
   834                           # 13327 "C:\Program Files\HI-TECH Software\PICC-18\9.80\include\PIC18F45K80.h"
   835  0000                     RCREG1 equ 0FAEh ;# 
   836                           # 13332 "C:\Program Files\HI-TECH Software\PICC-18\9.80\include\PIC18F45K80.h"
   837  0000                     RCREG equ 0FAEh ;# 
   838                           # 13350 "C:\Program Files\HI-TECH Software\PICC-18\9.80\include\PIC18F45K80.h"
   839  0000                     SPBRG1 equ 0FAFh ;# 
   840                           # 13355 "C:\Program Files\HI-TECH Software\PICC-18\9.80\include\PIC18F45K80.h"
   841  0000                     SPBRG equ 0FAFh ;# 
   842                           # 13373 "C:\Program Files\HI-TECH Software\PICC-18\9.80\include\PIC18F45K80.h"
   843  0000                     T3GCON equ 0FB0h ;# 
   844                           # 13409 "C:\Program Files\HI-TECH Software\PICC-18\9.80\include\PIC18F45K80.h"
   845  0000                     T3CON equ 0FB1h ;# 
   846                           # 13449 "C:\Program Files\HI-TECH Software\PICC-18\9.80\include\PIC18F45K80.h"
   847  0000                     TMR3 equ 0FB2h ;# 
   848                           # 13461 "C:\Program Files\HI-TECH Software\PICC-18\9.80\include\PIC18F45K80.h"
   849  0000                     TMR3L equ 0FB2h ;# 
   850                           # 13473 "C:\Program Files\HI-TECH Software\PICC-18\9.80\include\PIC18F45K80.h"
   851  0000                     TMR3H equ 0FB3h ;# 
   852                           # 13485 "C:\Program Files\HI-TECH Software\PICC-18\9.80\include\PIC18F45K80.h"
   853  0000                     CMSTAT equ 0FB4h ;# 
   854                           # 13490 "C:\Program Files\HI-TECH Software\PICC-18\9.80\include\PIC18F45K80.h"
   855  0000                     CMSTATUS equ 0FB4h ;# 
   856                           # 13528 "C:\Program Files\HI-TECH Software\PICC-18\9.80\include\PIC18F45K80.h"
   857  0000                     CVRCON equ 0FB5h ;# 
   858                           # 13558 "C:\Program Files\HI-TECH Software\PICC-18\9.80\include\PIC18F45K80.h"
   859  0000                     PIE4 equ 0FB6h ;# 
   860                           # 13577 "C:\Program Files\HI-TECH Software\PICC-18\9.80\include\PIC18F45K80.h"
   861  0000                     PIR4 equ 0FB7h ;# 
   862                           # 13596 "C:\Program Files\HI-TECH Software\PICC-18\9.80\include\PIC18F45K80.h"
   863  0000                     IPR4 equ 0FB8h ;# 
   864                           # 13618 "C:\Program Files\HI-TECH Software\PICC-18\9.80\include\PIC18F45K80.h"
   865  0000                     BAUDCON2 equ 0FB9h ;# 
   866                           # 13680 "C:\Program Files\HI-TECH Software\PICC-18\9.80\include\PIC18F45K80.h"
   867  0000                     TXSTA2 equ 0FBAh ;# 
   868                           # 13716 "C:\Program Files\HI-TECH Software\PICC-18\9.80\include\PIC18F45K80.h"
   869  0000                     CCP1CON equ 0FBBh ;# 
   870                           # 13721 "C:\Program Files\HI-TECH Software\PICC-18\9.80\include\PIC18F45K80.h"
   871  0000                     ECCP1CON equ 0FBBh ;# 
   872                           # 13773 "C:\Program Files\HI-TECH Software\PICC-18\9.80\include\PIC18F45K80.h"
   873  0000                     CCPR1 equ 0FBCh ;# 
   874                           # 13779 "C:\Program Files\HI-TECH Software\PICC-18\9.80\include\PIC18F45K80.h"
   875  0000                     CCPR1L equ 0FBCh ;# 
   876                           # 13791 "C:\Program Files\HI-TECH Software\PICC-18\9.80\include\PIC18F45K80.h"
   877  0000                     CCPR1H equ 0FBDh ;# 
   878                           # 13803 "C:\Program Files\HI-TECH Software\PICC-18\9.80\include\PIC18F45K80.h"
   879  0000                     ECCP1DEL equ 0FBEh ;# 
   880                           # 13808 "C:\Program Files\HI-TECH Software\PICC-18\9.80\include\PIC18F45K80.h"
   881  0000                     PWM1CON equ 0FBEh ;# 
   882                           # 13846 "C:\Program Files\HI-TECH Software\PICC-18\9.80\include\PIC18F45K80.h"
   883  0000                     ECCP1AS equ 0FBFh ;# 
   884                           # 13870 "C:\Program Files\HI-TECH Software\PICC-18\9.80\include\PIC18F45K80.h"
   885  0000                     ADCON2 equ 0FC0h ;# 
   886                           # 13893 "C:\Program Files\HI-TECH Software\PICC-18\9.80\include\PIC18F45K80.h"
   887  0000                     ADCON1 equ 0FC1h ;# 
   888                           # 13930 "C:\Program Files\HI-TECH Software\PICC-18\9.80\include\PIC18F45K80.h"
   889  0000                     ADCON0 equ 0FC2h ;# 
   890                           # 13977 "C:\Program Files\HI-TECH Software\PICC-18\9.80\include\PIC18F45K80.h"
   891  0000                     ADRES equ 0FC3h ;# 
   892                           # 13989 "C:\Program Files\HI-TECH Software\PICC-18\9.80\include\PIC18F45K80.h"
   893  0000                     ADRESL equ 0FC3h ;# 
   894                           # 14001 "C:\Program Files\HI-TECH Software\PICC-18\9.80\include\PIC18F45K80.h"
   895  0000                     ADRESH equ 0FC4h ;# 
   896                           # 14013 "C:\Program Files\HI-TECH Software\PICC-18\9.80\include\PIC18F45K80.h"
   897  0000                     SSPCON2 equ 0FC5h ;# 
   898                           # 14040 "C:\Program Files\HI-TECH Software\PICC-18\9.80\include\PIC18F45K80.h"
   899  0000                     SSPCON1 equ 0FC6h ;# 
   900                           # 14062 "C:\Program Files\HI-TECH Software\PICC-18\9.80\include\PIC18F45K80.h"
   901  0000                     SSPSTAT equ 0FC7h ;# 
   902                           # 14158 "C:\Program Files\HI-TECH Software\PICC-18\9.80\include\PIC18F45K80.h"
   903  0000                     SSPADD equ 0FC8h ;# 
   904                           # 14180 "C:\Program Files\HI-TECH Software\PICC-18\9.80\include\PIC18F45K80.h"
   905  0000                     SSPBUF equ 0FC9h ;# 
   906                           # 14192 "C:\Program Files\HI-TECH Software\PICC-18\9.80\include\PIC18F45K80.h"
   907  0000                     T2CON equ 0FCAh ;# 
   908                           # 14215 "C:\Program Files\HI-TECH Software\PICC-18\9.80\include\PIC18F45K80.h"
   909  0000                     PR2 equ 0FCBh ;# 
   910                           # 14220 "C:\Program Files\HI-TECH Software\PICC-18\9.80\include\PIC18F45K80.h"
   911  0000                     MEMCON equ 0FCBh ;# 
   912                           # 14238 "C:\Program Files\HI-TECH Software\PICC-18\9.80\include\PIC18F45K80.h"
   913  0000                     TMR2 equ 0FCCh ;# 
   914                           # 14250 "C:\Program Files\HI-TECH Software\PICC-18\9.80\include\PIC18F45K80.h"
   915  0000                     T1CON equ 0FCDh ;# 
   916                           # 14286 "C:\Program Files\HI-TECH Software\PICC-18\9.80\include\PIC18F45K80.h"
   917  0000                     TMR1 equ 0FCEh ;# 
   918                           # 14298 "C:\Program Files\HI-TECH Software\PICC-18\9.80\include\PIC18F45K80.h"
   919  0000                     TMR1L equ 0FCEh ;# 
   920                           # 14310 "C:\Program Files\HI-TECH Software\PICC-18\9.80\include\PIC18F45K80.h"
   921  0000                     TMR1H equ 0FCFh ;# 
   922                           # 14322 "C:\Program Files\HI-TECH Software\PICC-18\9.80\include\PIC18F45K80.h"
   923  0000                     RCON equ 0FD0h ;# 
   924                           # 14372 "C:\Program Files\HI-TECH Software\PICC-18\9.80\include\PIC18F45K80.h"
   925  0000                     WDTCON equ 0FD1h ;# 
   926                           # 14394 "C:\Program Files\HI-TECH Software\PICC-18\9.80\include\PIC18F45K80.h"
   927  0000                     OSCCON2 equ 0FD2h ;# 
   928                           # 14418 "C:\Program Files\HI-TECH Software\PICC-18\9.80\include\PIC18F45K80.h"
   929  0000                     OSCCON equ 0FD3h ;# 
   930                           # 14442 "C:\Program Files\HI-TECH Software\PICC-18\9.80\include\PIC18F45K80.h"
   931  0000                     T0CON equ 0FD5h ;# 
   932                           # 14464 "C:\Program Files\HI-TECH Software\PICC-18\9.80\include\PIC18F45K80.h"
   933  0000                     TMR0 equ 0FD6h ;# 
   934                           # 14476 "C:\Program Files\HI-TECH Software\PICC-18\9.80\include\PIC18F45K80.h"
   935  0000                     TMR0L equ 0FD6h ;# 
   936                           # 14488 "C:\Program Files\HI-TECH Software\PICC-18\9.80\include\PIC18F45K80.h"
   937  0000                     TMR0H equ 0FD7h ;# 
   938                           # 14500 "C:\Program Files\HI-TECH Software\PICC-18\9.80\include\PIC18F45K80.h"
   939  0000                     STATUS equ 0FD8h ;# 
   940                           # 14531 "C:\Program Files\HI-TECH Software\PICC-18\9.80\include\PIC18F45K80.h"
   941  0000                     FSR2 equ 0FD9h ;# 
   942                           # 14543 "C:\Program Files\HI-TECH Software\PICC-18\9.80\include\PIC18F45K80.h"
   943  0000                     FSR2L equ 0FD9h ;# 
   944                           # 14555 "C:\Program Files\HI-TECH Software\PICC-18\9.80\include\PIC18F45K80.h"
   945  0000                     FSR2H equ 0FDAh ;# 
   946                           # 14567 "C:\Program Files\HI-TECH Software\PICC-18\9.80\include\PIC18F45K80.h"
   947  0000                     PLUSW2 equ 0FDBh ;# 
   948                           # 14579 "C:\Program Files\HI-TECH Software\PICC-18\9.80\include\PIC18F45K80.h"
   949  0000                     PREINC2 equ 0FDCh ;# 
   950                           # 14591 "C:\Program Files\HI-TECH Software\PICC-18\9.80\include\PIC18F45K80.h"
   951  0000                     POSTDEC2 equ 0FDDh ;# 
   952                           # 14603 "C:\Program Files\HI-TECH Software\PICC-18\9.80\include\PIC18F45K80.h"
   953  0000                     POSTINC2 equ 0FDEh ;# 
   954                           # 14615 "C:\Program Files\HI-TECH Software\PICC-18\9.80\include\PIC18F45K80.h"
   955  0000                     INDF2 equ 0FDFh ;# 
   956                           # 14627 "C:\Program Files\HI-TECH Software\PICC-18\9.80\include\PIC18F45K80.h"
   957  0000                     BSR equ 0FE0h ;# 
   958                           # 14639 "C:\Program Files\HI-TECH Software\PICC-18\9.80\include\PIC18F45K80.h"
   959  0000                     FSR1 equ 0FE1h ;# 
   960                           # 14651 "C:\Program Files\HI-TECH Software\PICC-18\9.80\include\PIC18F45K80.h"
   961  0000                     FSR1L equ 0FE1h ;# 
   962                           # 14663 "C:\Program Files\HI-TECH Software\PICC-18\9.80\include\PIC18F45K80.h"
   963  0000                     FSR1H equ 0FE2h ;# 
   964                           # 14675 "C:\Program Files\HI-TECH Software\PICC-18\9.80\include\PIC18F45K80.h"
   965  0000                     PLUSW1 equ 0FE3h ;# 
   966                           # 14687 "C:\Program Files\HI-TECH Software\PICC-18\9.80\include\PIC18F45K80.h"
   967  0000                     PREINC1 equ 0FE4h ;# 
   968                           # 14699 "C:\Program Files\HI-TECH Software\PICC-18\9.80\include\PIC18F45K80.h"
   969  0000                     POSTDEC1 equ 0FE5h ;# 
   970                           # 14711 "C:\Program Files\HI-TECH Software\PICC-18\9.80\include\PIC18F45K80.h"
   971  0000                     POSTINC1 equ 0FE6h ;# 
   972                           # 14723 "C:\Program Files\HI-TECH Software\PICC-18\9.80\include\PIC18F45K80.h"
   973  0000                     INDF1 equ 0FE7h ;# 
   974                           # 14735 "C:\Program Files\HI-TECH Software\PICC-18\9.80\include\PIC18F45K80.h"
   975  0000                     WREG equ 0FE8h ;# 
   976                           # 14747 "C:\Program Files\HI-TECH Software\PICC-18\9.80\include\PIC18F45K80.h"
   977  0000                     FSR0 equ 0FE9h ;# 
   978                           # 14759 "C:\Program Files\HI-TECH Software\PICC-18\9.80\include\PIC18F45K80.h"
   979  0000                     FSR0L equ 0FE9h ;# 
   980                           # 14771 "C:\Program Files\HI-TECH Software\PICC-18\9.80\include\PIC18F45K80.h"
   981  0000                     FSR0H equ 0FEAh ;# 
   982                           # 14783 "C:\Program Files\HI-TECH Software\PICC-18\9.80\include\PIC18F45K80.h"
   983  0000                     PLUSW0 equ 0FEBh ;# 
   984                           # 14795 "C:\Program Files\HI-TECH Software\PICC-18\9.80\include\PIC18F45K80.h"
   985  0000                     PREINC0 equ 0FECh ;# 
   986                           # 14807 "C:\Program Files\HI-TECH Software\PICC-18\9.80\include\PIC18F45K80.h"
   987  0000                     POSTDEC0 equ 0FEDh ;# 
   988                           # 14819 "C:\Program Files\HI-TECH Software\PICC-18\9.80\include\PIC18F45K80.h"
   989  0000                     POSTINC0 equ 0FEEh ;# 
   990                           # 14831 "C:\Program Files\HI-TECH Software\PICC-18\9.80\include\PIC18F45K80.h"
   991  0000                     INDF0 equ 0FEFh ;# 
   992                           # 14843 "C:\Program Files\HI-TECH Software\PICC-18\9.80\include\PIC18F45K80.h"
   993  0000                     INTCON3 equ 0FF0h ;# 
   994                           # 14872 "C:\Program Files\HI-TECH Software\PICC-18\9.80\include\PIC18F45K80.h"
   995  0000                     INTCON2 equ 0FF1h ;# 
   996                           # 14902 "C:\Program Files\HI-TECH Software\PICC-18\9.80\include\PIC18F45K80.h"
   997  0000                     INTCON equ 0FF2h ;# 
   998                           # 14907 "C:\Program Files\HI-TECH Software\PICC-18\9.80\include\PIC18F45K80.h"
   999  0000                     INTCON1 equ 0FF2h ;# 
  1000                           # 14999 "C:\Program Files\HI-TECH Software\PICC-18\9.80\include\PIC18F45K80.h"
  1001  0000                     PROD equ 0FF3h ;# 
  1002                           # 15011 "C:\Program Files\HI-TECH Software\PICC-18\9.80\include\PIC18F45K80.h"
  1003  0000                     PRODL equ 0FF3h ;# 
  1004                           # 15023 "C:\Program Files\HI-TECH Software\PICC-18\9.80\include\PIC18F45K80.h"
  1005  0000                     PRODH equ 0FF4h ;# 
  1006                           # 15035 "C:\Program Files\HI-TECH Software\PICC-18\9.80\include\PIC18F45K80.h"
  1007  0000                     TABLAT equ 0FF5h ;# 
  1008                           # 15047 "C:\Program Files\HI-TECH Software\PICC-18\9.80\include\PIC18F45K80.h"
  1009  0000                     TBLPTR equ 0FF6h ;# 
  1010                           # 15059 "C:\Program Files\HI-TECH Software\PICC-18\9.80\include\PIC18F45K80.h"
  1011  0000                     TBLPTRL equ 0FF6h ;# 
  1012                           # 15071 "C:\Program Files\HI-TECH Software\PICC-18\9.80\include\PIC18F45K80.h"
  1013  0000                     TBLPTRH equ 0FF7h ;# 
  1014                           # 15083 "C:\Program Files\HI-TECH Software\PICC-18\9.80\include\PIC18F45K80.h"
  1015  0000                     TBLPTRU equ 0FF8h ;# 
  1016                           # 15095 "C:\Program Files\HI-TECH Software\PICC-18\9.80\include\PIC18F45K80.h"
  1017  0000                     PCLAT equ 0FF9h ;# 
  1018                           # 15100 "C:\Program Files\HI-TECH Software\PICC-18\9.80\include\PIC18F45K80.h"
  1019  0000                     PC equ 0FF9h ;# 
  1020                           # 15118 "C:\Program Files\HI-TECH Software\PICC-18\9.80\include\PIC18F45K80.h"
  1021  0000                     PCL equ 0FF9h ;# 
  1022                           # 15130 "C:\Program Files\HI-TECH Software\PICC-18\9.80\include\PIC18F45K80.h"
  1023  0000                     PCLATH equ 0FFAh ;# 
  1024                           # 15142 "C:\Program Files\HI-TECH Software\PICC-18\9.80\include\PIC18F45K80.h"
  1025  0000                     PCLATU equ 0FFBh ;# 
  1026                           # 15154 "C:\Program Files\HI-TECH Software\PICC-18\9.80\include\PIC18F45K80.h"
  1027  0000                     STKPTR equ 0FFCh ;# 
  1028                           # 15178 "C:\Program Files\HI-TECH Software\PICC-18\9.80\include\PIC18F45K80.h"
  1029  0000                     TOS equ 0FFDh ;# 
  1030                           # 15190 "C:\Program Files\HI-TECH Software\PICC-18\9.80\include\PIC18F45K80.h"
  1031  0000                     TOSL equ 0FFDh ;# 
  1032                           # 15202 "C:\Program Files\HI-TECH Software\PICC-18\9.80\include\PIC18F45K80.h"
  1033  0000                     TOSH equ 0FFEh ;# 
  1034                           # 15214 "C:\Program Files\HI-TECH Software\PICC-18\9.80\include\PIC18F45K80.h"
  1035  0000                     TOSU equ 0FFFh ;# 
  1036                           	FNCALL	_main,_delayms
  1037                           	FNCALL	_main,_PORTInit
  1038                           	FNCALL	_main,_IntManager
  1039                           	FNCALL	_main,_GetAddr
  1040                           	FNCALL	_main,_CANInit
  1041                           	FNCALL	_main,_CANRecv
  1042                           	FNCALL	_main,_CANDATAAnalyzing
  1043                           	FNCALL	_main,_HeartbeatTest
  1044                           	FNCALL	_CANRecv,_GetAddr
  1045                           	FNCALL	_CANRecv,_CANInit
  1046                           	FNCALL	_GetAddr,_GetLampBoardAddr
  1047                           	FNCALL	_CANInit,_CANSetID
  1048                           	FNCALL	_CANInit,_CANFilterSet
  1049                           	FNCALL	_CANInit,_CANErrClr
  1050                           	FNCALL	_delayms,_delayus
  1051                           	FNCALL	_CANDATAAnalyzing,_CANSendConfirm
  1052                           	FNCALL	_CANDATAAnalyzing,_CANSendID
  1053                           	FNCALL	_CANDATAAnalyzing,_CANWriteID
  1054                           	FNCALL	_CANDATAAnalyzing,_EEPROMRead
  1055                           	FNCALL	_CANDATAAnalyzing,_CANSend
  1056                           	FNCALL	_CANDATAAnalyzing,_YFlashNewConfigure
  1057                           	FNCALL	_CANDATAAnalyzing,_Read_YFlash_CFG
  1058                           	FNCALL	_CANSendConfirm,_CANSend
  1059                           	FNCALL	_CANWriteID,_EEPROMWrite
  1060                           	FNCALL	_CANWriteID,_CANSendID
  1061                           	FNCALL	_CANSendID,_EEPROMRead
  1062                           	FNCALL	_CANSendID,_CANSend
  1063                           	FNCALL	_YFlashNewConfigure,_EEPROMRead
  1064                           	FNCALL	_YFlashNewConfigure,_EEPROMWrite
  1065                           	FNCALL	_YFlashNewConfigure,_CalculateTime25msCounter
  1066                           	FNCALL	_CalculateTime25msCounter,___ftmul
  1067                           	FNCALL	_CalculateTime25msCounter,___fttol
  1068                           	FNCALL	_CalculateTime25msCounter,___lwdiv
  1069                           	FNCALL	_HeartbeatTest,_Read_YFlash_CFG
  1070                           	FNCALL	_Read_YFlash_CFG,_EEPROMRead
  1071                           	FNCALL	___ftmul,___ftpack
  1072                           	FNROOT	_main
  1073                           	FNCALL	_IntServer,_TMR0IntServer
  1074                           	FNCALL	_IntServer,_TMR1IntServer
  1075                           	FNCALL	_IntServer,_ADIntServer
  1076                           	FNCALL	_TMR1IntServer,_YellowFlash
  1077                           	FNCALL	_YellowFlash,_LED_On_Disp
  1078                           	FNCALL	_YellowFlash,_LED_Off_Disp
  1079                           	FNCALL	intlevel2,_IntServer
  1080                           	global	intlevel2
  1081                           	FNROOT	intlevel2
  1082                           	global	_CANSdlc
  1083                           	global	_turnoff
  1084                           	global	_CANRdlc
  1085                           	global	_eeprom_num
  1086                           	global	_cycledutyon
  1087                           	global	_period
  1088                           	global	_cycledutyoff
  1089                           psect	idataCOMRAM,class=CODE,space=0,delta=1
  1090                           global __pidataCOMRAM
  1091  001BA4                     __pidataCOMRAM:
  1092                           	file	"E:\WorkSpace\YellowFlashingController20140317\YellowFlash.C"
  1093                           	line	86
  1094                           
  1095                           ;initializer for _CANSdlc
  1096  001BA4  08                 	db	low(08h)
  1097                           	line	108
  1098                           
  1099                           ;initializer for _turnoff
  1100  001BA5  01                 	db	low(01h)
  1101                           	line	84
  1102                           
  1103                           ;initializer for _CANRdlc
  1104  001BA6  08                 	db	low(08h)
  1105                           	line	116
  1106                           
  1107                           ;initializer for _eeprom_num
  1108  001BA7  04                 	db	low(04h)
  1109                           psect	idataBANK0,class=CODE,space=0,delta=1
  1110                           global __pidataBANK0
  1111  001936                     __pidataBANK0:
  1112                           	line	92
  1113                           
  1114                           ;initializer for _cycledutyon
  1115  001936  00                 	db	low(float24(0.0000000000000000))
  1116  001937  00                 	db	high(float24(0.0000000000000000))
  1117  001938  00                 	db	low highword(float24(0.0000000000000000))
  1118  001939  00                 	db	low(float24(0.062500000000000000))
  1119  00193A  80                 	db	high(float24(0.062500000000000000))
  1120  00193B  3D                 	db	low highword(float24(0.062500000000000000))
  1121  00193C  00                 	db	low(float24(0.12500000000000000))
  1122  00193D  00                 	db	high(float24(0.12500000000000000))
  1123  00193E  3E                 	db	low highword(float24(0.12500000000000000))
  1124  00193F  00                 	db	low(float24(0.18750000000000000))
  1125  001940  40                 	db	high(float24(0.18750000000000000))
  1126  001941  3E                 	db	low highword(float24(0.18750000000000000))
  1127  001942  00                 	db	low(float24(0.25000000000000000))
  1128  001943  80                 	db	high(float24(0.25000000000000000))
  1129  001944  3E                 	db	low highword(float24(0.25000000000000000))
  1130  001945  00                 	db	low(float24(0.31250000000000000))
  1131  001946  A0                 	db	high(float24(0.31250000000000000))
  1132  001947  3E                 	db	low highword(float24(0.31250000000000000))
  1133  001948  00                 	db	low(float24(0.37500000000000000))
  1134  001949  C0                 	db	high(float24(0.37500000000000000))
  1135  00194A  3E                 	db	low highword(float24(0.37500000000000000))
  1136  00194B  00                 	db	low(float24(0.43750000000000000))
  1137  00194C  E0                 	db	high(float24(0.43750000000000000))
  1138  00194D  3E                 	db	low highword(float24(0.43750000000000000))
  1139  00194E  00                 	db	low(float24(0.50000000000000000))
  1140  00194F  00                 	db	high(float24(0.50000000000000000))
  1141  001950  3F                 	db	low highword(float24(0.50000000000000000))
  1142  001951  00                 	db	low(float24(0.56250000000000000))
  1143  001952  10                 	db	high(float24(0.56250000000000000))
  1144  001953  3F                 	db	low highword(float24(0.56250000000000000))
  1145  001954  00                 	db	low(float24(0.62500000000000000))
  1146  001955  20                 	db	high(float24(0.62500000000000000))
  1147  001956  3F                 	db	low highword(float24(0.62500000000000000))
  1148  001957  00                 	db	low(float24(0.68750000000000000))
  1149  001958  30                 	db	high(float24(0.68750000000000000))
  1150  001959  3F                 	db	low highword(float24(0.68750000000000000))
  1151  00195A  00                 	db	low(float24(0.75000000000000000))
  1152  00195B  40                 	db	high(float24(0.75000000000000000))
  1153  00195C  3F                 	db	low highword(float24(0.75000000000000000))
  1154  00195D  00                 	db	low(float24(0.81250000000000000))
  1155  00195E  50                 	db	high(float24(0.81250000000000000))
  1156  00195F  3F                 	db	low highword(float24(0.81250000000000000))
  1157  001960  00                 	db	low(float24(0.87500000000000000))
  1158  001961  60                 	db	high(float24(0.87500000000000000))
  1159  001962  3F                 	db	low highword(float24(0.87500000000000000))
  1160  001963  00                 	db	low(float24(1.0000000000000000))
  1161  001964  80                 	db	high(float24(1.0000000000000000))
  1162  001965  3F                 	db	low highword(float24(1.0000000000000000))
  1163                           	line	90
  1164                           
  1165                           ;initializer for _period
  1166  001966  40                 	db	low(float24(5000.0000000000000))
  1167  001967  9C                 	db	high(float24(5000.0000000000000))
  1168  001968  45                 	db	low highword(float24(5000.0000000000000))
  1169  001969  50                 	db	low(float24(3333.0000000000000))
  1170  00196A  50                 	db	high(float24(3333.0000000000000))
  1171  00196B  45                 	db	low highword(float24(3333.0000000000000))
  1172  00196C  40                 	db	low(float24(2500.0000000000000))
  1173  00196D  1C                 	db	high(float24(2500.0000000000000))
  1174  00196E  45                 	db	low highword(float24(2500.0000000000000))
  1175  00196F  00                 	db	low(float24(2000.0000000000000))
  1176  001970  FA                 	db	high(float24(2000.0000000000000))
  1177  001971  44                 	db	low highword(float24(2000.0000000000000))
  1178  001972  00                 	db	low(float24(1000.0000000000000))
  1179  001973  7A                 	db	high(float24(1000.0000000000000))
  1180  001974  44                 	db	low highword(float24(1000.0000000000000))
  1181  001975  AD                 	db	low(float24(666.70000000000005))
  1182  001976  26                 	db	high(float24(666.70000000000005))
  1183  001977  44                 	db	low highword(float24(666.70000000000005))
  1184  001978  00                 	db	low(float24(500.00000000000000))
  1185  001979  FA                 	db	high(float24(500.00000000000000))
  1186  00197A  43                 	db	low highword(float24(500.00000000000000))
  1187  00197B  00                 	db	low(float24(400.00000000000000))
  1188  00197C  C8                 	db	high(float24(400.00000000000000))
  1189  00197D  43                 	db	low highword(float24(400.00000000000000))
  1190  00197E  A6                 	db	low(float24(333.30000000000001))
  1191  00197F  A6                 	db	high(float24(333.30000000000001))
  1192  001980  43                 	db	low highword(float24(333.30000000000001))
  1193  001981  00                 	db	low(float24(200.00000000000000))
  1194  001982  48                 	db	high(float24(200.00000000000000))
  1195  001983  43                 	db	low highword(float24(200.00000000000000))
  1196                           psect	idataBANK1,class=CODE,space=0,delta=1
  1197                           global __pidataBANK1
  1198  001A7C                     __pidataBANK1:
  1199                           	line	95
  1200                           
  1201                           ;initializer for _cycledutyoff
  1202  001A7C  00                 	db	low(float24(1.0000000000000000))
  1203  001A7D  80                 	db	high(float24(1.0000000000000000))
  1204  001A7E  3F                 	db	low highword(float24(1.0000000000000000))
  1205  001A7F  00                 	db	low(float24(0.93750000000000000))
  1206  001A80  70                 	db	high(float24(0.93750000000000000))
  1207  001A81  3F                 	db	low highword(float24(0.93750000000000000))
  1208  001A82  00                 	db	low(float24(0.87500000000000000))
  1209  001A83  60                 	db	high(float24(0.87500000000000000))
  1210  001A84  3F                 	db	low highword(float24(0.87500000000000000))
  1211  001A85  00                 	db	low(float24(0.81250000000000000))
  1212  001A86  50                 	db	high(float24(0.81250000000000000))
  1213  001A87  3F                 	db	low highword(float24(0.81250000000000000))
  1214  001A88  00                 	db	low(float24(0.75000000000000000))
  1215  001A89  40                 	db	high(float24(0.75000000000000000))
  1216  001A8A  3F                 	db	low highword(float24(0.75000000000000000))
  1217  001A8B  00                 	db	low(float24(0.68750000000000000))
  1218  001A8C  30                 	db	high(float24(0.68750000000000000))
  1219  001A8D  3F                 	db	low highword(float24(0.68750000000000000))
  1220  001A8E  00                 	db	low(float24(0.62500000000000000))
  1221  001A8F  20                 	db	high(float24(0.62500000000000000))
  1222  001A90  3F                 	db	low highword(float24(0.62500000000000000))
  1223  001A91  00                 	db	low(float24(0.56250000000000000))
  1224  001A92  10                 	db	high(float24(0.56250000000000000))
  1225  001A93  3F                 	db	low highword(float24(0.56250000000000000))
  1226  001A94  00                 	db	low(float24(0.50000000000000000))
  1227  001A95  00                 	db	high(float24(0.50000000000000000))
  1228  001A96  3F                 	db	low highword(float24(0.50000000000000000))
  1229  001A97  00                 	db	low(float24(0.43750000000000000))
  1230  001A98  E0                 	db	high(float24(0.43750000000000000))
  1231  001A99  3E                 	db	low highword(float24(0.43750000000000000))
  1232  001A9A  00                 	db	low(float24(0.37500000000000000))
  1233  001A9B  C0                 	db	high(float24(0.37500000000000000))
  1234  001A9C  3E                 	db	low highword(float24(0.37500000000000000))
  1235  001A9D  00                 	db	low(float24(0.31250000000000000))
  1236  001A9E  A0                 	db	high(float24(0.31250000000000000))
  1237  001A9F  3E                 	db	low highword(float24(0.31250000000000000))
  1238  001AA0  00                 	db	low(float24(0.25000000000000000))
  1239  001AA1  80                 	db	high(float24(0.25000000000000000))
  1240  001AA2  3E                 	db	low highword(float24(0.25000000000000000))
  1241  001AA3  00                 	db	low(float24(0.18750000000000000))
  1242  001AA4  40                 	db	high(float24(0.18750000000000000))
  1243  001AA5  3E                 	db	low highword(float24(0.18750000000000000))
  1244  001AA6  00                 	db	low(float24(0.12500000000000000))
  1245  001AA7  00                 	db	high(float24(0.12500000000000000))
  1246  001AA8  3E                 	db	low highword(float24(0.12500000000000000))
  1247  001AA9  00                 	db	low(float24(0.0000000000000000))
  1248  001AAA  00                 	db	high(float24(0.0000000000000000))
  1249  001AAB  00                 	db	low highword(float24(0.0000000000000000))
  1250                           	global	_time_counters
  1251                           	global	_f_r_mod
  1252                           	global	_force_status
  1253                           	global	_my_addr
  1254                           	global	_run_mode
  1255                           	global	_yflash_status
  1256                           	global	_eeprom_addr
  1257                           	global	_readwrite
  1258                           	global	_yflash_CFG
  1259                           	global	_CANInt
  1260                           	global	_switchmode
  1261                           	global	_time5ms
  1262                           	global	_time_off
  1263                           	global	_time_on
  1264                           	global	_t1_cont
  1265                           	global	_time_counter
  1266                           	global	_time_off_counter
  1267                           	global	_time_on_counter
  1268                           	global	_can_time_cont
  1269                           	global	_heartbeat
  1270                           	global	_led_data0
  1271                           	global	_led_data1
  1272                           	global	_lines
  1273                           	global	_master_time_cont
  1274                           	global	_my_config
  1275                           	global	_rows
  1276                           	global	_sta
  1277                           	global	_t500ms_count
  1278                           	global	_CANRdata
  1279                           	global	_CANSdata
  1280                           	global	_CANRid
  1281                           	global	_CANSid
  1282                           	global	_ADRESH
  1283  0000                     _ADRESH	set	0xFC4
  1284                           	global	_ADRESL
  1285  0000                     _ADRESL	set	0xFC3
  1286                           	global	_ANCON1
  1287  0000                     _ANCON1	set	0xF5C
  1288                           	global	_BRGCON1
  1289  0000                     _BRGCON1	set	0xE43
  1290                           	global	_BRGCON2
  1291  0000                     _BRGCON2	set	0xE44
  1292                           	global	_BRGCON3
  1293  0000                     _BRGCON3	set	0xE45
  1294                           	global	_CANCON
  1295  0000                     _CANCON	set	0xF6F
  1296                           	global	_CANSTAT
  1297  0000                     _CANSTAT	set	0xF6E
  1298                           	global	_CIOCON
  1299  0000                     _CIOCON	set	0xF70
  1300                           	global	_ECANCON
  1301  0000                     _ECANCON	set	0xF72
  1302                           	global	_EEADR
  1303  0000                     _EEADR	set	0xF74
  1304                           	global	_EEADRH
  1305  0000                     _EEADRH	set	0xF75
  1306                           	global	_EECON1
  1307  0000                     _EECON1	set	0xF7F
  1308                           	global	_EECON2
  1309  0000                     _EECON2	set	0xF7E
  1310                           	global	_EEDATA
  1311  0000                     _EEDATA	set	0xF73
  1312                           	global	_INTCON
  1313  0000                     _INTCON	set	0xFF2
  1314                           	global	_PORTB
  1315  0000                     _PORTB	set	0xF81
  1316                           	global	_RXB0CON
  1317  0000                     _RXB0CON	set	0xF60
  1318                           	global	_RXB0D0
  1319  0000                     _RXB0D0	set	0xF66
  1320                           	global	_RXB0D1
  1321  0000                     _RXB0D1	set	0xF67
  1322                           	global	_RXB0D2
  1323  0000                     _RXB0D2	set	0xF68
  1324                           	global	_RXB0D3
  1325  0000                     _RXB0D3	set	0xF69
  1326                           	global	_RXB0D4
  1327  0000                     _RXB0D4	set	0xF6A
  1328                           	global	_RXB0D5
  1329  0000                     _RXB0D5	set	0xF6B
  1330                           	global	_RXB0D6
  1331  0000                     _RXB0D6	set	0xF6C
  1332                           	global	_RXB0D7
  1333  0000                     _RXB0D7	set	0xF6D
  1334                           	global	_RXB0DLC
  1335  0000                     _RXB0DLC	set	0xF65
  1336                           	global	_RXB0EIDH
  1337  0000                     _RXB0EIDH	set	0xF63
  1338                           	global	_RXB0EIDL
  1339  0000                     _RXB0EIDL	set	0xF64
  1340                           	global	_RXB0SIDH
  1341  0000                     _RXB0SIDH	set	0xF61
  1342                           	global	_RXB0SIDL
  1343  0000                     _RXB0SIDL	set	0xF62
  1344                           	global	_RXB1CON
  1345  0000                     _RXB1CON	set	0xF30
  1346                           	global	_RXB1D0
  1347  0000                     _RXB1D0	set	0xF36
  1348                           	global	_RXB1D1
  1349  0000                     _RXB1D1	set	0xF37
  1350                           	global	_RXB1D2
  1351  0000                     _RXB1D2	set	0xF38
  1352                           	global	_RXB1D3
  1353  0000                     _RXB1D3	set	0xF39
  1354                           	global	_RXB1D4
  1355  0000                     _RXB1D4	set	0xF3A
  1356                           	global	_RXB1D5
  1357  0000                     _RXB1D5	set	0xF3B
  1358                           	global	_RXB1D6
  1359  0000                     _RXB1D6	set	0xF3C
  1360                           	global	_RXB1D7
  1361  0000                     _RXB1D7	set	0xF3D
  1362                           	global	_RXB1DLC
  1363  0000                     _RXB1DLC	set	0xF35
  1364                           	global	_RXB1EIDH
  1365  0000                     _RXB1EIDH	set	0xF33
  1366                           	global	_RXB1EIDL
  1367  0000                     _RXB1EIDL	set	0xF34
  1368                           	global	_RXB1SIDH
  1369  0000                     _RXB1SIDH	set	0xF31
  1370                           	global	_RXB1SIDL
  1371  0000                     _RXB1SIDL	set	0xF32
  1372                           	global	_RXF0EIDH
  1373  0000                     _RXF0EIDH	set	0xEE2
  1374                           	global	_RXF0EIDL
  1375  0000                     _RXF0EIDL	set	0xEE3
  1376                           	global	_RXF0SIDH
  1377  0000                     _RXF0SIDH	set	0xEE0
  1378                           	global	_RXF0SIDL
  1379  0000                     _RXF0SIDL	set	0xEE1
  1380                           	global	_RXF1EIDH
  1381  0000                     _RXF1EIDH	set	0xEE6
  1382                           	global	_RXF1EIDL
  1383  0000                     _RXF1EIDL	set	0xEE7
  1384                           	global	_RXF1SIDH
  1385  0000                     _RXF1SIDH	set	0xEE4
  1386                           	global	_RXF1SIDL
  1387  0000                     _RXF1SIDL	set	0xEE5
  1388                           	global	_RXF2EIDH
  1389  0000                     _RXF2EIDH	set	0xEEA
  1390                           	global	_RXF2EIDL
  1391  0000                     _RXF2EIDL	set	0xEEB
  1392                           	global	_RXF2SIDH
  1393  0000                     _RXF2SIDH	set	0xEE8
  1394                           	global	_RXF2SIDL
  1395  0000                     _RXF2SIDL	set	0xEE9
  1396                           	global	_RXF3EIDH
  1397  0000                     _RXF3EIDH	set	0xEEE
  1398                           	global	_RXF3EIDL
  1399  0000                     _RXF3EIDL	set	0xEEF
  1400                           	global	_RXF3SIDH
  1401  0000                     _RXF3SIDH	set	0xEEC
  1402                           	global	_RXF3SIDL
  1403  0000                     _RXF3SIDL	set	0xEED
  1404                           	global	_RXF4EIDH
  1405  0000                     _RXF4EIDH	set	0xEF2
  1406                           	global	_RXF4EIDL
  1407  0000                     _RXF4EIDL	set	0xEF3
  1408                           	global	_RXF4SIDH
  1409  0000                     _RXF4SIDH	set	0xEF0
  1410                           	global	_RXF4SIDL
  1411  0000                     _RXF4SIDL	set	0xEF1
  1412                           	global	_RXF5EIDH
  1413  0000                     _RXF5EIDH	set	0xEF6
  1414                           	global	_RXF5EIDL
  1415  0000                     _RXF5EIDL	set	0xEF7
  1416                           	global	_RXF5SIDH
  1417  0000                     _RXF5SIDH	set	0xEF4
  1418                           	global	_RXF5SIDL
  1419  0000                     _RXF5SIDL	set	0xEF5
  1420                           	global	_RXM0EIDH
  1421  0000                     _RXM0EIDH	set	0xEFA
  1422                           	global	_RXM0EIDL
  1423  0000                     _RXM0EIDL	set	0xEFB
  1424                           	global	_RXM0SIDH
  1425  0000                     _RXM0SIDH	set	0xEF8
  1426                           	global	_RXM0SIDL
  1427  0000                     _RXM0SIDL	set	0xEF9
  1428                           	global	_RXM1EIDH
  1429  0000                     _RXM1EIDH	set	0xEFE
  1430                           	global	_RXM1EIDL
  1431  0000                     _RXM1EIDL	set	0xEFF
  1432                           	global	_RXM1SIDH
  1433  0000                     _RXM1SIDH	set	0xEFC
  1434                           	global	_RXM1SIDL
  1435  0000                     _RXM1SIDL	set	0xEFD
  1436                           	global	_T1CON
  1437  0000                     _T1CON	set	0xFCD
  1438                           	global	_TMR0H
  1439  0000                     _TMR0H	set	0xFD7
  1440                           	global	_TMR0L
  1441  0000                     _TMR0L	set	0xFD6
  1442                           	global	_TMR1H
  1443  0000                     _TMR1H	set	0xFCF
  1444                           	global	_TMR1L
  1445  0000                     _TMR1L	set	0xFCE
  1446                           	global	_TRISB
  1447  0000                     _TRISB	set	0xF93
  1448                           	global	_TRISC
  1449  0000                     _TRISC	set	0xF94
  1450                           	global	_TRISD
  1451  0000                     _TRISD	set	0xF95
  1452                           	global	_TXB0CON
  1453  0000                     _TXB0CON	set	0xF20
  1454                           	global	_TXB0D0
  1455  0000                     _TXB0D0	set	0xF26
  1456                           	global	_TXB0D1
  1457  0000                     _TXB0D1	set	0xF27
  1458                           	global	_TXB0D2
  1459  0000                     _TXB0D2	set	0xF28
  1460                           	global	_TXB0D3
  1461  0000                     _TXB0D3	set	0xF29
  1462                           	global	_TXB0D4
  1463  0000                     _TXB0D4	set	0xF2A
  1464                           	global	_TXB0D5
  1465  0000                     _TXB0D5	set	0xF2B
  1466                           	global	_TXB0D6
  1467  0000                     _TXB0D6	set	0xF2C
  1468                           	global	_TXB0D7
  1469  0000                     _TXB0D7	set	0xF2D
  1470                           	global	_TXB0DLC
  1471  0000                     _TXB0DLC	set	0xF25
  1472                           	global	_TXB0EIDH
  1473  0000                     _TXB0EIDH	set	0xF23
  1474                           	global	_TXB0EIDL
  1475  0000                     _TXB0EIDL	set	0xF24
  1476                           	global	_TXB0SIDH
  1477  0000                     _TXB0SIDH	set	0xF21
  1478                           	global	_TXB0SIDL
  1479  0000                     _TXB0SIDL	set	0xF22
  1480                           	global	_TXB1CON
  1481  0000                     _TXB1CON	set	0xF10
  1482                           	global	_TXB1D0
  1483  0000                     _TXB1D0	set	0xF16
  1484                           	global	_TXB1D1
  1485  0000                     _TXB1D1	set	0xF17
  1486                           	global	_TXB1D2
  1487  0000                     _TXB1D2	set	0xF18
  1488                           	global	_TXB1D3
  1489  0000                     _TXB1D3	set	0xF19
  1490                           	global	_TXB1D4
  1491  0000                     _TXB1D4	set	0xF1A
  1492                           	global	_TXB1D5
  1493  0000                     _TXB1D5	set	0xF1B
  1494                           	global	_TXB1D6
  1495  0000                     _TXB1D6	set	0xF1C
  1496                           	global	_TXB1D7
  1497  0000                     _TXB1D7	set	0xF1D
  1498                           	global	_TXB1DLC
  1499  0000                     _TXB1DLC	set	0xF15
  1500                           	global	_TXB1EIDH
  1501  0000                     _TXB1EIDH	set	0xF13
  1502                           	global	_TXB1EIDL
  1503  0000                     _TXB1EIDL	set	0xF14
  1504                           	global	_TXB1SIDH
  1505  0000                     _TXB1SIDH	set	0xF11
  1506                           	global	_TXB1SIDL
  1507  0000                     _TXB1SIDL	set	0xF12
  1508                           	global	_TXB2CON
  1509  0000                     _TXB2CON	set	0xF00
  1510                           	global	_TXB2D0
  1511  0000                     _TXB2D0	set	0xF06
  1512                           	global	_TXB2D1
  1513  0000                     _TXB2D1	set	0xF07
  1514                           	global	_TXB2D2
  1515  0000                     _TXB2D2	set	0xF08
  1516                           	global	_TXB2D3
  1517  0000                     _TXB2D3	set	0xF09
  1518                           	global	_TXB2D4
  1519  0000                     _TXB2D4	set	0xF0A
  1520                           	global	_TXB2D5
  1521  0000                     _TXB2D5	set	0xF0B
  1522                           	global	_TXB2D6
  1523  0000                     _TXB2D6	set	0xF0C
  1524                           	global	_TXB2D7
  1525  0000                     _TXB2D7	set	0xF0D
  1526                           	global	_TXB2DLC
  1527  0000                     _TXB2DLC	set	0xF05
  1528                           	global	_TXB2EIDH
  1529  0000                     _TXB2EIDH	set	0xF03
  1530                           	global	_TXB2EIDL
  1531  0000                     _TXB2EIDL	set	0xF04
  1532                           	global	_TXB2SIDH
  1533  0000                     _TXB2SIDH	set	0xF01
  1534                           	global	_TXB2SIDL
  1535  0000                     _TXB2SIDL	set	0xF02
  1536                           	global	_ADIE
  1537  0000                     _ADIE	set	0x7CEE
  1538                           	global	_ADIF
  1539  0000                     _ADIF	set	0x7CF6
  1540                           	global	_ERRIF
  1541  0000                     _ERRIF	set	0x7BBD
  1542                           	global	_RC4
  1543  0000                     _RC4	set	0x7C14
  1544                           	global	_RC5
  1545  0000                     _RC5	set	0x7C15
  1546                           	global	_RC6
  1547  0000                     _RC6	set	0x7C16
  1548                           	global	_RD2
  1549  0000                     _RD2	set	0x7C1A
  1550                           	global	_RD3
  1551  0000                     _RD3	set	0x7C1B
  1552                           	global	_RXB0IF
  1553  0000                     _RXB0IF	set	0x7BB8
  1554                           	global	_RXB1IF
  1555  0000                     _RXB1IF	set	0x7BB9
  1556                           	global	_T08BIT
  1557  0000                     _T08BIT	set	0x7EAE
  1558                           	global	_T0CS
  1559  0000                     _T0CS	set	0x7EAD
  1560                           	global	_TMR0IE
  1561  0000                     _TMR0IE	set	0x7F95
  1562                           	global	_TMR0IF
  1563  0000                     _TMR0IF	set	0x7F92
  1564                           	global	_TMR0ON
  1565  0000                     _TMR0ON	set	0x7EAF
  1566                           	global	_TMR1IE
  1567  0000                     _TMR1IE	set	0x7CE8
  1568                           	global	_TMR1IF
  1569  0000                     _TMR1IF	set	0x7CF0
  1570                           	global	_TXB0IF
  1571  0000                     _TXB0IF	set	0x7BBA
  1572                           	global	_TXB1IF
  1573  0000                     _TXB1IF	set	0x7BBB
  1574                           	global	_TXB2IF
  1575  0000                     _TXB2IF	set	0x7BBC
  1576                           ; #config settings
  1577                           global __CFG_SOSCSEL$DIG
  1578  0000                     __CFG_SOSCSEL$DIG equ 0x0
  1579                           global __CFG_XINST$OFF
  1580  0000                     __CFG_XINST$OFF equ 0x0
  1581                           global __CFG_FOSC$HS1
  1582  0000                     __CFG_FOSC$HS1 equ 0x0
  1583                           global __CFG_PLLCFG$OFF
  1584  0000                     __CFG_PLLCFG$OFF equ 0x0
  1585                           global __CFG_WDTEN$OFF
  1586  0000                     __CFG_WDTEN$OFF equ 0x0
  1587                           global __CFG_WRTD$OFF
  1588  0000                     __CFG_WRTD$OFF equ 0x0
  1589                           	file	"YF.as"
  1590                           	line	#
  1591                           psect	cinit,class=CODE,delta=1,reloc=2
  1592                           global __pcinit
  1593  0014C8                     __pcinit:
  1594                           global start_initialization
  1595  0014C8                     start_initialization:
  1596                           
  1597                           psect	bitbssCOMRAM,class=COMRAM,bit,space=1
  1598                           global __pbitbssCOMRAM
  1599  000268                     __pbitbssCOMRAM:
  1600                           	global	_CANInt
  1601  000268                     _CANInt:
  1602  000268                            ds      1
  1603                           	global	_switchmode
  1604  000269                     _switchmode:
  1605  000269                            ds      1
  1606                           	global	_time5ms
  1607  00026A                     _time5ms:
  1608  00026A                            ds      1
  1609                           psect	bssCOMRAM,class=COMRAM,space=1
  1610                           global __pbssCOMRAM
  1611  00003C                     __pbssCOMRAM:
  1612                           	global	_time_counters
  1613  00003C                     _time_counters:
  1614  00003C                            ds      2
  1615                           	global	_f_r_mod
  1616  00003E                     _f_r_mod:
  1617  00003E                            ds      1
  1618                           	global	_force_status
  1619  00003F                     _force_status:
  1620  00003F                            ds      1
  1621                           	global	_my_addr
  1622  000040                     _my_addr:
  1623  000040                            ds      1
  1624                           	global	_run_mode
  1625  000041                     _run_mode:
  1626  000041                            ds      1
  1627                           	global	_yflash_status
  1628  000042                     _yflash_status:
  1629  000042                            ds      1
  1630                           	global	_eeprom_addr
  1631  000043                     _eeprom_addr:
  1632  000043                            ds      2
  1633                           	global	_readwrite
  1634  000045                     _readwrite:
  1635  000045                            ds      2
  1636                           	global	_yflash_CFG
  1637  000047                     _yflash_CFG:
  1638  000047                            ds      2
  1639                           psect	dataCOMRAM,class=COMRAM,space=1
  1640                           global __pdataCOMRAM
  1641  000049                     __pdataCOMRAM:
  1642                           	file	"E:\WorkSpace\YellowFlashingController20140317\YellowFlash.C"
  1643                           	line	86
  1644                           	global	_CANSdlc
  1645  000049                     _CANSdlc:
  1646  000049                            ds      1
  1647                           psect	dataCOMRAM
  1648                           	file	"E:\WorkSpace\YellowFlashingController20140317\YellowFlash.C"
  1649                           	line	108
  1650                           	global	_turnoff
  1651  00004A                     _turnoff:
  1652  00004A                            ds      1
  1653                           psect	dataCOMRAM
  1654                           	file	"E:\WorkSpace\YellowFlashingController20140317\YellowFlash.C"
  1655                           	line	84
  1656                           	global	_CANRdlc
  1657  00004B                     _CANRdlc:
  1658  00004B                            ds      1
  1659                           psect	dataCOMRAM
  1660                           	file	"E:\WorkSpace\YellowFlashingController20140317\YellowFlash.C"
  1661                           	line	116
  1662                           	global	_eeprom_num
  1663  00004C                     _eeprom_num:
  1664  00004C                            ds      1
  1665                           psect	bssBANK0,class=BANK0,space=1
  1666                           global __pbssBANK0
  1667  0000AE                     __pbssBANK0:
  1668                           	global	_t1_cont
  1669  0000AE                     _t1_cont:
  1670  0000AE                            ds      2
  1671                           	global	_time_counter
  1672  0000B0                     _time_counter:
  1673  0000B0                            ds      2
  1674                           	global	_time_off_counter
  1675  0000B2                     _time_off_counter:
  1676  0000B2                            ds      2
  1677                           	global	_time_on_counter
  1678  0000B4                     _time_on_counter:
  1679  0000B4                            ds      2
  1680                           	global	_can_time_cont
  1681  0000B6                     _can_time_cont:
  1682  0000B6                            ds      1
  1683                           	global	_heartbeat
  1684  0000B7                     _heartbeat:
  1685  0000B7                            ds      1
  1686                           	global	_led_data0
  1687                           	global	_led_data0
  1688  0000B8                     _led_data0:
  1689  0000B8                            ds      1
  1690                           	global	_led_data1
  1691                           	global	_led_data1
  1692  0000B9                     _led_data1:
  1693  0000B9                            ds      1
  1694                           	global	_lines
  1695  0000BA                     _lines:
  1696  0000BA                            ds      1
  1697                           	global	_master_time_cont
  1698  0000BB                     _master_time_cont:
  1699  0000BB                            ds      1
  1700                           	global	_my_config
  1701                           	global	_my_config
  1702  0000BC                     _my_config:
  1703  0000BC                            ds      1
  1704                           	global	_rows
  1705  0000BD                     _rows:
  1706  0000BD                            ds      1
  1707                           	global	_sta
  1708  0000BE                     _sta:
  1709  0000BE                            ds      1
  1710                           	global	_t500ms_count
  1711  0000BF                     _t500ms_count:
  1712  0000BF                            ds      1
  1713                           	global	_CANRdata
  1714  0000C0                     _CANRdata:
  1715  0000C0                            ds      8
  1716                           	global	_CANSdata
  1717  0000C8                     _CANSdata:
  1718  0000C8                            ds      8
  1719                           	global	_CANRid
  1720  0000D0                     _CANRid:
  1721  0000D0                            ds      4
  1722                           	global	_CANSid
  1723  0000D4                     _CANSid:
  1724  0000D4                            ds      4
  1725                           psect	dataBANK0,class=BANK0,space=1
  1726                           global __pdataBANK0
  1727  000060                     __pdataBANK0:
  1728                           	file	"E:\WorkSpace\YellowFlashingController20140317\YellowFlash.C"
  1729                           	line	92
  1730                           	global	_cycledutyon
  1731  000060                     _cycledutyon:
  1732  000060                            ds      48
  1733                           psect	dataBANK0
  1734                           	file	"E:\WorkSpace\YellowFlashingController20140317\YellowFlash.C"
  1735                           	line	90
  1736                           	global	_period
  1737  000090                     _period:
  1738  000090                            ds      30
  1739                           psect	dataBANK1,class=BANK1,space=1
  1740                           global __pdataBANK1
  1741  000100                     __pdataBANK1:
  1742                           	file	"E:\WorkSpace\YellowFlashingController20140317\YellowFlash.C"
  1743                           	line	95
  1744                           	global	_cycledutyoff
  1745  000100                     _cycledutyoff:
  1746  000100                            ds      48
  1747                           psect	bssBIGRAM,class=BIGRAM,space=1
  1748                           global __pbssBIGRAM
  1749  000130                     __pbssBIGRAM:
  1750                           	global	_time_off
  1751  000130                     _time_off:
  1752  000130                            ds      320
  1753                           	global	_time_on
  1754  000270                     _time_on:
  1755  000270                            ds      320
  1756                           psect	cinit
  1757                           ; Clear objects allocated to BIGRAM (640 bytes)
  1758                           	global __pbssBIGRAM
  1759  0014C8  EE01  F030         lfsr	0,__pbssBIGRAM
  1760  0014CC  EE12 F080          lfsr	1,640
  1761  0014D0                     clear_0:
  1762  0014D0  6AEE               clrf	postinc0,c
  1763  0014D2  50E5               movf	postdec1,w
  1764  0014D4  50E1               movf	fsr1l,w
  1765  0014D6  E1FC               bnz	clear_0
  1766  0014D8  50E2               movf	fsr1h,w
  1767  0014DA  E1FA               bnz	clear_0
  1768                           ; Clear objects allocated to BANK0 (42 bytes)
  1769                           	global __pbssBANK0
  1770  0014DC  EE00  F0AE         lfsr	0,__pbssBANK0
  1771  0014E0  0E2A               movlw	42
  1772  0014E2                     clear_1:
  1773  0014E2  6AEE               clrf	postinc0,c
  1774  0014E4  06E8               decf	wreg
  1775  0014E6  E1FD               bnz	clear_1
  1776                           ; Clear objects allocated to BITCOMRAM (1 bytes)
  1777                           	global __pbitbssCOMRAM
  1778  0014E8  6A4D               clrf	(__pbitbssCOMRAM/8+0)&0xffh,c
  1779                           ; Clear objects allocated to COMRAM (13 bytes)
  1780                           	global __pbssCOMRAM
  1781  0014EA  EE00  F03C         lfsr	0,__pbssCOMRAM
  1782  0014EE  0E0D               movlw	13
  1783  0014F0                     clear_2:
  1784  0014F0  6AEE               clrf	postinc0,c
  1785  0014F2  06E8               decf	wreg
  1786  0014F4  E1FD               bnz	clear_2
  1787                           ; Initialize objects allocated to BANK1 (48 bytes)
  1788                           	global __pidataBANK1
  1789                           	; load TBLPTR registers with __pidataBANK1
  1790  0014F6  0E7C               	movlw	low (__pidataBANK1)
  1791  0014F8  6EF6               	movwf	tblptrl
  1792  0014FA  0E1A               	movlw	high(__pidataBANK1)
  1793  0014FC  6EF7               	movwf	tblptrh
  1794  0014FE  0E00               	movlw	low highword(__pidataBANK1)
  1795  001500  6EF8               	movwf	tblptru
  1796  001502  EE01  F000         	lfsr	0,__pdataBANK1
  1797  001506  EE10 F030          	lfsr	1,48
  1798  00150A                     	copy_data0:
  1799  00150A  0009               	tblrd	*+
  1800  00150C  CFF5 FFEE          	movff	tablat, postinc0
  1801  001510  50E5               	movf	postdec1,w
  1802  001512  50E1               	movf	fsr1l,w
  1803  001514  E1FA               	bnz	copy_data0
  1804                           ; Initialize objects allocated to BANK0 (78 bytes)
  1805                           	global __pidataBANK0
  1806                           	; load TBLPTR registers with __pidataBANK0
  1807  001516  0E36               	movlw	low (__pidataBANK0)
  1808  001518  6EF6               	movwf	tblptrl
  1809  00151A  0E19               	movlw	high(__pidataBANK0)
  1810  00151C  6EF7               	movwf	tblptrh
  1811  00151E  0E00               	movlw	low highword(__pidataBANK0)
  1812  001520  6EF8               	movwf	tblptru
  1813  001522  EE00  F060         	lfsr	0,__pdataBANK0
  1814  001526  EE10 F04E          	lfsr	1,78
  1815  00152A                     	copy_data1:
  1816  00152A  0009               	tblrd	*+
  1817  00152C  CFF5 FFEE          	movff	tablat, postinc0
  1818  001530  50E5               	movf	postdec1,w
  1819  001532  50E1               	movf	fsr1l,w
  1820  001534  E1FA               	bnz	copy_data1
  1821                           ; Initialize objects allocated to COMRAM (4 bytes)
  1822                           	global __pidataCOMRAM
  1823                           	; load TBLPTR registers with __pidataCOMRAM
  1824  001536  0EA4               	movlw	low (__pidataCOMRAM)
  1825  001538  6EF6               	movwf	tblptrl
  1826  00153A  0E1B               	movlw	high(__pidataCOMRAM)
  1827  00153C  6EF7               	movwf	tblptrh
  1828  00153E  0E00               	movlw	low highword(__pidataCOMRAM)
  1829  001540  6EF8               	movwf	tblptru
  1830  001542  EE00  F049         	lfsr	0,__pdataCOMRAM
  1831  001546  EE10 F004          	lfsr	1,4
  1832  00154A                     	copy_data2:
  1833  00154A  0009               	tblrd	*+
  1834  00154C  CFF5 FFEE          	movff	tablat, postinc0
  1835  001550  50E5               	movf	postdec1,w
  1836  001552  50E1               	movf	fsr1l,w
  1837  001554  E1FA               	bnz	copy_data2
  1838                           psect cinit,class=CODE,delta=1
  1839                           global end_of_initialization
  1840                           
  1841                           ;End of C runtime variable initialization code
  1842                           
  1843  001556                     end_of_initialization:
  1844  001556  0100               movlb 0
  1845  001558  EF07  F00A         goto _main	;jump to C main() function
  1846                           psect	cstackBANK0,class=BANK0,space=1
  1847                           global __pcstackBANK0
  1848  0000D8                     __pcstackBANK0:
  1849                           	global	?_CalculateTime25msCounter
  1850  0000D8                     ?_CalculateTime25msCounter:	; 0 bytes @ 0x0
  1851                           	global	CalculateTime25msCounter@row
  1852  0000D8                     CalculateTime25msCounter@row:	; 1 bytes @ 0x0
  1853  0000D8                     	ds   1
  1854                           	global	CalculateTime25msCounter@line
  1855  0000D9                     CalculateTime25msCounter@line:	; 1 bytes @ 0x1
  1856  0000D9                     	ds   1
  1857                           	global	??_CalculateTime25msCounter
  1858  0000DA                     ??_CalculateTime25msCounter:	; 0 bytes @ 0x2
  1859  0000DA                     	ds   6
  1860                           	global	CalculateTime25msCounter@i
  1861  0000E0                     CalculateTime25msCounter@i:	; 2 bytes @ 0x8
  1862  0000E0                     	ds   2
  1863                           	global	CalculateTime25msCounter@j
  1864  0000E2                     CalculateTime25msCounter@j:	; 2 bytes @ 0xA
  1865  0000E2                     	ds   2
  1866                           	global	?_CANDATAAnalyzing
  1867  0000E4                     ?_CANDATAAnalyzing:	; 0 bytes @ 0xC
  1868                           	global	CANDATAAnalyzing@id
  1869  0000E4                     CANDATAAnalyzing@id:	; 2 bytes @ 0xC
  1870  0000E4                     	ds   2
  1871                           	global	CANDATAAnalyzing@dat
  1872  0000E6                     CANDATAAnalyzing@dat:	; 2 bytes @ 0xE
  1873  0000E6                     	ds   2
  1874                           	global	CANDATAAnalyzing@dlc
  1875  0000E8                     CANDATAAnalyzing@dlc:	; 1 bytes @ 0x10
  1876  0000E8                     	ds   1
  1877                           	global	??_CANDATAAnalyzing
  1878  0000E9                     ??_CANDATAAnalyzing:	; 0 bytes @ 0x11
  1879  0000E9                     	ds   4
  1880                           	global	??_main
  1881  0000ED                     ??_main:	; 0 bytes @ 0x15
  1882  0000ED                     	ds   1
  1883                           psect	cstackCOMRAM,class=COMRAM,space=1
  1884                           global __pcstackCOMRAM
  1885  000001                     __pcstackCOMRAM:
  1886                           	global	?_CANErrClr
  1887  000001                     ?_CANErrClr:	; 0 bytes @ 0x0
  1888                           	global	?_LED_On_Disp
  1889  000001                     ?_LED_On_Disp:	; 0 bytes @ 0x0
  1890                           	global	??_LED_On_Disp
  1891  000001                     ??_LED_On_Disp:	; 0 bytes @ 0x0
  1892                           	global	?_LED_Off_Disp
  1893  000001                     ?_LED_Off_Disp:	; 0 bytes @ 0x0
  1894                           	global	??_LED_Off_Disp
  1895  000001                     ??_LED_Off_Disp:	; 0 bytes @ 0x0
  1896                           	global	?_YellowFlash
  1897  000001                     ?_YellowFlash:	; 0 bytes @ 0x0
  1898                           	global	??_YellowFlash
  1899  000001                     ??_YellowFlash:	; 0 bytes @ 0x0
  1900                           	global	?_TMR0IntServer
  1901  000001                     ?_TMR0IntServer:	; 0 bytes @ 0x0
  1902                           	global	??_TMR0IntServer
  1903  000001                     ??_TMR0IntServer:	; 0 bytes @ 0x0
  1904                           	global	?_TMR1IntServer
  1905  000001                     ?_TMR1IntServer:	; 0 bytes @ 0x0
  1906                           	global	??_TMR1IntServer
  1907  000001                     ??_TMR1IntServer:	; 0 bytes @ 0x0
  1908                           	global	?_ADIntServer
  1909  000001                     ?_ADIntServer:	; 0 bytes @ 0x0
  1910                           	global	??_ADIntServer
  1911  000001                     ??_ADIntServer:	; 0 bytes @ 0x0
  1912                           	global	?_IntServer
  1913  000001                     ?_IntServer:	; 0 bytes @ 0x0
  1914                           	global	?_PORTInit
  1915  000001                     ?_PORTInit:	; 0 bytes @ 0x0
  1916                           	global	?_IntManager
  1917  000001                     ?_IntManager:	; 0 bytes @ 0x0
  1918                           	global	?_CANSendConfirm
  1919  000001                     ?_CANSendConfirm:	; 0 bytes @ 0x0
  1920                           	global	?_Read_YFlash_CFG
  1921  000001                     ?_Read_YFlash_CFG:	; 0 bytes @ 0x0
  1922                           	global	?_YFlashNewConfigure
  1923  000001                     ?_YFlashNewConfigure:	; 0 bytes @ 0x0
  1924                           	global	?_HeartbeatTest
  1925  000001                     ?_HeartbeatTest:	; 0 bytes @ 0x0
  1926                           	global	?_main
  1927  000001                     ?_main:	; 0 bytes @ 0x0
  1928                           	global	?_GetLampBoardAddr
  1929  000001                     ?_GetLampBoardAddr:	; 1 bytes @ 0x0
  1930  000001                     	ds   2
  1931                           	global	ADIntServer@adrel
  1932  000003                     ADIntServer@adrel:	; 2 bytes @ 0x2
  1933  000003                     	ds   2
  1934                           	global	??_IntServer
  1935  000005                     ??_IntServer:	; 0 bytes @ 0x4
  1936  000005                     	ds   14
  1937                           	global	??_GetLampBoardAddr
  1938  000013                     ??_GetLampBoardAddr:	; 0 bytes @ 0x12
  1939                           	global	?_CANFilterSet
  1940  000013                     ?_CANFilterSet:	; 0 bytes @ 0x12
  1941                           	global	??_CANErrClr
  1942  000013                     ??_CANErrClr:	; 0 bytes @ 0x12
  1943                           	global	?_CANSetID
  1944  000013                     ?_CANSetID:	; 0 bytes @ 0x12
  1945                           	global	?_EEPROMRead
  1946  000013                     ?_EEPROMRead:	; 0 bytes @ 0x12
  1947                           	global	?_EEPROMWrite
  1948  000013                     ?_EEPROMWrite:	; 0 bytes @ 0x12
  1949                           	global	?_delayus
  1950  000013                     ?_delayus:	; 0 bytes @ 0x12
  1951                           	global	??_PORTInit
  1952  000013                     ??_PORTInit:	; 0 bytes @ 0x12
  1953                           	global	??_IntManager
  1954  000013                     ??_IntManager:	; 0 bytes @ 0x12
  1955                           	global	?_CANSend
  1956  000013                     ?_CANSend:	; 1 bytes @ 0x12
  1957                           	global	?___lwdiv
  1958  000013                     ?___lwdiv:	; 2 bytes @ 0x12
  1959                           	global	?___ftpack
  1960  000013                     ?___ftpack:	; 3 bytes @ 0x12
  1961                           	global	CANFilterSet@board_addr
  1962  000013                     CANFilterSet@board_addr:	; 1 bytes @ 0x12
  1963                           	global	CANSetID@board_addr
  1964  000013                     CANSetID@board_addr:	; 1 bytes @ 0x12
  1965                           	global	CANSend@id
  1966  000013                     CANSend@id:	; 2 bytes @ 0x12
  1967                           	global	EEPROMRead@addr
  1968  000013                     EEPROMRead@addr:	; 2 bytes @ 0x12
  1969                           	global	EEPROMWrite@addr
  1970  000013                     EEPROMWrite@addr:	; 2 bytes @ 0x12
  1971                           	global	delayus@us
  1972  000013                     delayus@us:	; 2 bytes @ 0x12
  1973                           	global	___lwdiv@dividend
  1974  000013                     ___lwdiv@dividend:	; 2 bytes @ 0x12
  1975                           	global	___ftpack@arg
  1976  000013                     ___ftpack@arg:	; 3 bytes @ 0x12
  1977  000013                     	ds   1
  1978                           	global	CANFilterSet@f_type
  1979  000014                     CANFilterSet@f_type:	; 1 bytes @ 0x13
  1980                           	global	CANSetID@f_type
  1981  000014                     CANSetID@f_type:	; 1 bytes @ 0x13
  1982                           	global	GetLampBoardAddr@i
  1983  000014                     GetLampBoardAddr@i:	; 2 bytes @ 0x13
  1984  000014                     	ds   1
  1985                           	global	??_CANFilterSet
  1986  000015                     ??_CANFilterSet:	; 0 bytes @ 0x14
  1987                           	global	??_CANSetID
  1988  000015                     ??_CANSetID:	; 0 bytes @ 0x14
  1989                           	global	??_delayus
  1990  000015                     ??_delayus:	; 0 bytes @ 0x14
  1991                           	global	CANSend@dat
  1992  000015                     CANSend@dat:	; 2 bytes @ 0x14
  1993                           	global	EEPROMRead@num
  1994  000015                     EEPROMRead@num:	; 2 bytes @ 0x14
  1995                           	global	EEPROMWrite@num
  1996  000015                     EEPROMWrite@num:	; 2 bytes @ 0x14
  1997                           	global	delayus@i
  1998  000015                     delayus@i:	; 2 bytes @ 0x14
  1999                           	global	___lwdiv@divisor
  2000  000015                     ___lwdiv@divisor:	; 2 bytes @ 0x14
  2001  000015                     	ds   1
  2002                           	global	GetLampBoardAddr@addr
  2003  000016                     GetLampBoardAddr@addr:	; 1 bytes @ 0x15
  2004                           	global	___ftpack@exp
  2005  000016                     ___ftpack@exp:	; 1 bytes @ 0x15
  2006  000016                     	ds   1
  2007                           	global	?_delayms
  2008  000017                     ?_delayms:	; 0 bytes @ 0x16
  2009                           	global	??___lwdiv
  2010  000017                     ??___lwdiv:	; 0 bytes @ 0x16
  2011                           	global	?_GetAddr
  2012  000017                     ?_GetAddr:	; 1 bytes @ 0x16
  2013                           	global	GetAddr@board_type
  2014  000017                     GetAddr@board_type:	; 1 bytes @ 0x16
  2015                           	global	CANSend@dlc
  2016  000017                     CANSend@dlc:	; 1 bytes @ 0x16
  2017                           	global	___ftpack@sign
  2018  000017                     ___ftpack@sign:	; 1 bytes @ 0x16
  2019                           	global	EEPROMRead@dat
  2020  000017                     EEPROMRead@dat:	; 2 bytes @ 0x16
  2021                           	global	EEPROMWrite@dat
  2022  000017                     EEPROMWrite@dat:	; 2 bytes @ 0x16
  2023                           	global	delayms@ms
  2024  000017                     delayms@ms:	; 2 bytes @ 0x16
  2025  000017                     	ds   1
  2026                           	global	??___ftpack
  2027  000018                     ??___ftpack:	; 0 bytes @ 0x17
  2028                           	global	??_GetAddr
  2029  000018                     ??_GetAddr:	; 0 bytes @ 0x17
  2030                           	global	??_CANSend
  2031  000018                     ??_CANSend:	; 0 bytes @ 0x17
  2032                           	global	??_CANSendConfirm
  2033  000018                     ??_CANSendConfirm:	; 0 bytes @ 0x17
  2034                           	global	___lwdiv@counter
  2035  000018                     ___lwdiv@counter:	; 1 bytes @ 0x17
  2036  000018                     	ds   1
  2037                           	global	??_EEPROMRead
  2038  000019                     ??_EEPROMRead:	; 0 bytes @ 0x18
  2039                           	global	??_EEPROMWrite
  2040  000019                     ??_EEPROMWrite:	; 0 bytes @ 0x18
  2041                           	global	??_delayms
  2042  000019                     ??_delayms:	; 0 bytes @ 0x18
  2043                           	global	?_CANSendID
  2044  000019                     ?_CANSendID:	; 0 bytes @ 0x18
  2045                           	global	??_Read_YFlash_CFG
  2046  000019                     ??_Read_YFlash_CFG:	; 0 bytes @ 0x18
  2047                           	global	GetAddr@rel
  2048  000019                     GetAddr@rel:	; 1 bytes @ 0x18
  2049                           	global	CANSendConfirm@i
  2050  000019                     CANSendConfirm@i:	; 1 bytes @ 0x18
  2051                           	global	CANSendID@sm
  2052  000019                     CANSendID@sm:	; 1 bytes @ 0x18
  2053                           	global	delayms@i
  2054  000019                     delayms@i:	; 2 bytes @ 0x18
  2055                           	global	___lwdiv@quotient
  2056  000019                     ___lwdiv@quotient:	; 2 bytes @ 0x18
  2057  000019                     	ds   1
  2058                           	global	?_CANInit
  2059  00001A                     ?_CANInit:	; 0 bytes @ 0x19
  2060                           	global	??_CANSendID
  2061  00001A                     ??_CANSendID:	; 0 bytes @ 0x19
  2062                           	global	??_HeartbeatTest
  2063  00001A                     ??_HeartbeatTest:	; 0 bytes @ 0x19
  2064                           	global	CANInit@b_addr
  2065  00001A                     CANInit@b_addr:	; 1 bytes @ 0x19
  2066  00001A                     	ds   1
  2067                           	global	??_CANInit
  2068  00001B                     ??_CANInit:	; 0 bytes @ 0x1A
  2069                           	global	?_CANWriteID
  2070  00001B                     ?_CANWriteID:	; 0 bytes @ 0x1A
  2071                           	global	?___ftmul
  2072  00001B                     ?___ftmul:	; 3 bytes @ 0x1A
  2073                           	global	CANWriteID@fm
  2074  00001B                     CANWriteID@fm:	; 1 bytes @ 0x1A
  2075                           	global	___ftmul@f1
  2076  00001B                     ___ftmul@f1:	; 3 bytes @ 0x1A
  2077  00001B                     	ds   1
  2078                           	global	?_CANRecv
  2079  00001C                     ?_CANRecv:	; 1 bit 
  2080                           	global	??_CANWriteID
  2081  00001C                     ??_CANWriteID:	; 0 bytes @ 0x1B
  2082                           	global	CANRecv@id
  2083  00001C                     CANRecv@id:	; 2 bytes @ 0x1B
  2084  00001C                     	ds   2
  2085                           	global	CANRecv@dat
  2086  00001E                     CANRecv@dat:	; 2 bytes @ 0x1D
  2087                           	global	___ftmul@f2
  2088  00001E                     ___ftmul@f2:	; 3 bytes @ 0x1D
  2089  00001E                     	ds   2
  2090                           	global	CANRecv@dlc
  2091  000020                     CANRecv@dlc:	; 2 bytes @ 0x1F
  2092  000020                     	ds   1
  2093                           	global	??___ftmul
  2094  000021                     ??___ftmul:	; 0 bytes @ 0x20
  2095  000021                     	ds   1
  2096                           	global	??_CANRecv
  2097  000022                     ??_CANRecv:	; 0 bytes @ 0x21
  2098  000022                     	ds   4
  2099                           	global	___ftmul@exp
  2100  000026                     ___ftmul@exp:	; 1 bytes @ 0x25
  2101  000026                     	ds   1
  2102                           	global	___ftmul@f3_as_product
  2103  000027                     ___ftmul@f3_as_product:	; 3 bytes @ 0x26
  2104  000027                     	ds   3
  2105                           	global	___ftmul@cntr
  2106  00002A                     ___ftmul@cntr:	; 1 bytes @ 0x29
  2107  00002A                     	ds   1
  2108                           	global	___ftmul@sign
  2109  00002B                     ___ftmul@sign:	; 1 bytes @ 0x2A
  2110  00002B                     	ds   1
  2111                           	global	?___fttol
  2112  00002C                     ?___fttol:	; 4 bytes @ 0x2B
  2113                           	global	___fttol@f1
  2114  00002C                     ___fttol@f1:	; 3 bytes @ 0x2B
  2115  00002C                     	ds   4
  2116                           	global	??___fttol
  2117  000030                     ??___fttol:	; 0 bytes @ 0x2F
  2118  000030                     	ds   5
  2119                           	global	___fttol@sign1
  2120  000035                     ___fttol@sign1:	; 1 bytes @ 0x34
  2121  000035                     	ds   1
  2122                           	global	___fttol@lval
  2123  000036                     ___fttol@lval:	; 4 bytes @ 0x35
  2124  000036                     	ds   4
  2125                           	global	___fttol@exp1
  2126  00003A                     ___fttol@exp1:	; 1 bytes @ 0x39
  2127  00003A                     	ds   1
  2128                           	global	??_YFlashNewConfigure
  2129  00003B                     ??_YFlashNewConfigure:	; 0 bytes @ 0x3A
  2130  00003B                     	ds   1
  2131                           ;!
  2132                           ;!Data Sizes:
  2133                           ;!    Strings     0
  2134                           ;!    Constant    0
  2135                           ;!    Data        130
  2136                           ;!    BSS         695
  2137                           ;!    Persistent  0
  2138                           ;!    Stack       0
  2139                           ;!
  2140                           ;!Auto Spaces:
  2141                           ;!    Space          Size  Autos    Used
  2142                           ;!    COMRAM           95     59      77
  2143                           ;!    BANK0           160     22     142
  2144                           ;!    BANK1           256      0      48
  2145                           ;!    BANK2           256      0       0
  2146                           ;!    BANK3           256      0       0
  2147                           ;!    BANK4           256      0       0
  2148                           ;!    BANK5           256      0       0
  2149                           ;!    BANK6           256      0       0
  2150                           ;!    BANK7           256      0       0
  2151                           ;!    BANK8           256      0       0
  2152                           ;!    BANK9           256      0       0
  2153                           ;!    BANK10          256      0       0
  2154                           ;!    BANK11          256      0       0
  2155                           ;!    BANK12          256      0       0
  2156                           ;!    BANK13          256      0       0
  2157                           ;!    BANK14           65      0       0
  2158                           
  2159                           ;!
  2160                           ;!Pointer List with Targets:
  2161                           ;!
  2162                           ;!    ?___ftpack	float  size(2) Largest target is 0
  2163                           ;!
  2164                           ;!    CANSend@id	PTR unsigned char  size(2) Largest target is 4
  2165                           ;!		 -> CANSid(BANK0[4]), 
  2166                           ;!
  2167                           ;!    ?___lwdiv	unsigned int  size(2) Largest target is 0
  2168                           ;!
  2169                           ;!    ?___fttol	long  size(2) Largest target is 0
  2170                           ;!
  2171                           ;!    ?___ftmul	float  size(2) Largest target is 0
  2172                           ;!
  2173                           ;!    CANDATAAnalyzing@id	PTR unsigned char  size(2) Largest target is 4
  2174                           ;!		 -> CANRid(BANK0[4]), 
  2175                           ;!
  2176                           ;!    CANDATAAnalyzing@dat	PTR unsigned char  size(2) Largest target is 8
  2177                           ;!		 -> CANRdata(BANK0[8]), 
  2178                           ;!
  2179                           ;!    EEPROMWrite@num	PTR unsigned char  size(2) Largest target is 1
  2180                           ;!		 -> eeprom_num(COMRAM[1]), 
  2181                           ;!
  2182                           ;!    EEPROMWrite@dat	PTR unsigned char  size(2) Largest target is 8
  2183                           ;!		 -> readwrite(COMRAM[2]), CANRdata(BANK0[8]), 
  2184                           ;!
  2185                           ;!    EEPROMWrite@addr	PTR unsigned char  size(2) Largest target is 2
  2186                           ;!		 -> eeprom_addr(COMRAM[2]), 
  2187                           ;!
  2188                           ;!    EEPROMRead@num	PTR unsigned char  size(2) Largest target is 1
  2189                           ;!		 -> eeprom_num(COMRAM[1]), 
  2190                           ;!
  2191                           ;!    EEPROMRead@dat	PTR unsigned char  size(2) Largest target is 8
  2192                           ;!		 -> yflash_CFG(COMRAM[2]), readwrite(COMRAM[2]), CANSdata(BANK0[8]), 
  2193                           ;!
  2194                           ;!    EEPROMRead@addr	PTR unsigned char  size(2) Largest target is 2
  2195                           ;!		 -> eeprom_addr(COMRAM[2]), 
  2196                           ;!
  2197                           ;!    CANRecv@dat	PTR unsigned char  size(2) Largest target is 8
  2198                           ;!		 -> CANRdata(BANK0[8]), 
  2199                           ;!
  2200                           ;!    CANRecv@dlc	PTR unsigned char  size(2) Largest target is 1
  2201                           ;!		 -> CANRdlc(COMRAM[1]), 
  2202                           ;!
  2203                           ;!    CANRecv@id	PTR unsigned char  size(2) Largest target is 4
  2204                           ;!		 -> CANRid(BANK0[4]), 
  2205                           ;!
  2206                           ;!    CANSend@dat	PTR unsigned char  size(2) Largest target is 8
  2207                           ;!		 -> CANSdata(BANK0[8]), 
  2208                           ;!
  2209                           
  2210                           
  2211                           ;!
  2212                           ;!Critical Paths under _main in COMRAM
  2213                           ;!
  2214                           ;!    _CANRecv->_CANInit
  2215                           ;!    _GetAddr->_GetLampBoardAddr
  2216                           ;!    _CANInit->_GetAddr
  2217                           ;!    _delayms->_delayus
  2218                           ;!    _CANDATAAnalyzing->_YFlashNewConfigure
  2219                           ;!    _CANSendConfirm->_CANSend
  2220                           ;!    _CANWriteID->_CANSendID
  2221                           ;!    _CANSendID->_EEPROMRead
  2222                           ;!    _CalculateTime25msCounter->___fttol
  2223                           ;!    _HeartbeatTest->_Read_YFlash_CFG
  2224                           ;!    _Read_YFlash_CFG->_EEPROMRead
  2225                           ;!    ___ftmul->___ftpack
  2226                           ;!    ___fttol->___ftmul
  2227                           ;!
  2228                           ;!Critical Paths under _IntServer in COMRAM
  2229                           ;!
  2230                           ;!    _IntServer->_ADIntServer
  2231                           ;!
  2232                           ;!Critical Paths under _main in BANK0
  2233                           ;!
  2234                           ;!    _main->_CANDATAAnalyzing
  2235                           ;!    _YFlashNewConfigure->_CalculateTime25msCounter
  2236                           ;!
  2237                           ;!Critical Paths under _IntServer in BANK0
  2238                           ;!
  2239                           ;!    None.
  2240                           ;!
  2241                           ;!Critical Paths under _main in BANK1
  2242                           ;!
  2243                           ;!    None.
  2244                           ;!
  2245                           ;!Critical Paths under _IntServer in BANK1
  2246                           ;!
  2247                           ;!    None.
  2248                           ;!
  2249                           ;!Critical Paths under _main in BANK2
  2250                           ;!
  2251                           ;!    None.
  2252                           ;!
  2253                           ;!Critical Paths under _IntServer in BANK2
  2254                           ;!
  2255                           ;!    None.
  2256                           ;!
  2257                           ;!Critical Paths under _main in BANK3
  2258                           ;!
  2259                           ;!    None.
  2260                           ;!
  2261                           ;!Critical Paths under _IntServer in BANK3
  2262                           ;!
  2263                           ;!    None.
  2264                           ;!
  2265                           ;!Critical Paths under _main in BANK4
  2266                           ;!
  2267                           ;!    None.
  2268                           ;!
  2269                           ;!Critical Paths under _IntServer in BANK4
  2270                           ;!
  2271                           ;!    None.
  2272                           ;!
  2273                           ;!Critical Paths under _main in BANK5
  2274                           ;!
  2275                           ;!    None.
  2276                           ;!
  2277                           ;!Critical Paths under _IntServer in BANK5
  2278                           ;!
  2279                           ;!    None.
  2280                           ;!
  2281                           ;!Critical Paths under _main in BANK6
  2282                           ;!
  2283                           ;!    None.
  2284                           ;!
  2285                           ;!Critical Paths under _IntServer in BANK6
  2286                           ;!
  2287                           ;!    None.
  2288                           ;!
  2289                           ;!Critical Paths under _main in BANK7
  2290                           ;!
  2291                           ;!    None.
  2292                           ;!
  2293                           ;!Critical Paths under _IntServer in BANK7
  2294                           ;!
  2295                           ;!    None.
  2296                           ;!
  2297                           ;!Critical Paths under _main in BANK8
  2298                           ;!
  2299                           ;!    None.
  2300                           ;!
  2301                           ;!Critical Paths under _IntServer in BANK8
  2302                           ;!
  2303                           ;!    None.
  2304                           ;!
  2305                           ;!Critical Paths under _main in BANK9
  2306                           ;!
  2307                           ;!    None.
  2308                           ;!
  2309                           ;!Critical Paths under _IntServer in BANK9
  2310                           ;!
  2311                           ;!    None.
  2312                           ;!
  2313                           ;!Critical Paths under _main in BANK10
  2314                           ;!
  2315                           ;!    None.
  2316                           ;!
  2317                           ;!Critical Paths under _IntServer in BANK10
  2318                           ;!
  2319                           ;!    None.
  2320                           ;!
  2321                           ;!Critical Paths under _main in BANK11
  2322                           ;!
  2323                           ;!    None.
  2324                           ;!
  2325                           ;!Critical Paths under _IntServer in BANK11
  2326                           ;!
  2327                           ;!    None.
  2328                           ;!
  2329                           ;!Critical Paths under _main in BANK12
  2330                           ;!
  2331                           ;!    None.
  2332                           ;!
  2333                           ;!Critical Paths under _IntServer in BANK12
  2334                           ;!
  2335                           ;!    None.
  2336                           ;!
  2337                           ;!Critical Paths under _main in BANK13
  2338                           ;!
  2339                           ;!    None.
  2340                           ;!
  2341                           ;!Critical Paths under _IntServer in BANK13
  2342                           ;!
  2343                           ;!    None.
  2344                           ;!
  2345                           ;!Critical Paths under _main in BANK14
  2346                           ;!
  2347                           ;!    None.
  2348                           ;!
  2349                           ;!Critical Paths under _IntServer in BANK14
  2350                           ;!
  2351                           ;!    None.
  2352                           
  2353 ;;
  2354 ;;Main: autosize = 0, tempsize = 1, incstack = 0, save=0
  2355 ;;
  2356                           
  2357                           ;!
  2358                           ;!Call Graph Tables:
  2359                           ;!
  2360                           ;! ---------------------------------------------------------------------------------
  2361                           ;! (Depth) Function   	        Calls       Base Space   Used Autos Params    Refs
  2362                           ;! ---------------------------------------------------------------------------------
  2363                           ;! (0) _main                                                 1     1      0    6895
  2364                           ;!                                             21 BANK0      1     1      0
  2365                           ;!                            _delayms
  2366                           ;!                           _PORTInit
  2367                           ;!                         _IntManager
  2368                           ;!                            _GetAddr
  2369                           ;!                            _CANInit
  2370                           ;!                            _CANRecv
  2371                           ;!                   _CANDATAAnalyzing
  2372                           ;!                      _HeartbeatTest
  2373                           ;! ---------------------------------------------------------------------------------
  2374                           ;! (1) _CANRecv                                              7     1      6    1175
  2375                           ;!                                             27 COMRAM     7     1      6
  2376                           ;!                            _GetAddr
  2377                           ;!                            _CANInit
  2378                           ;! ---------------------------------------------------------------------------------
  2379                           ;! (2) _GetAddr                                              3     2      1     141
  2380                           ;!                                             22 COMRAM     3     2      1
  2381                           ;!                   _GetLampBoardAddr
  2382                           ;! ---------------------------------------------------------------------------------
  2383                           ;! (3) _GetLampBoardAddr                                     4     4      0      93
  2384                           ;!                                             18 COMRAM     4     4      0
  2385                           ;! ---------------------------------------------------------------------------------
  2386                           ;! (2) _CANInit                                              2     1      1     176
  2387                           ;!                                             25 COMRAM     2     1      1
  2388                           ;!                           _CANSetID
  2389                           ;!                       _CANFilterSet
  2390                           ;!                          _CANErrClr
  2391                           ;!                            _GetAddr (ARG)
  2392                           ;! ---------------------------------------------------------------------------------
  2393                           ;! (3) _CANFilterSet                                         2     0      2      66
  2394                           ;!                                             18 COMRAM     2     0      2
  2395                           ;! ---------------------------------------------------------------------------------
  2396                           ;! (3) _CANErrClr                                            0     0      0       0
  2397                           ;! ---------------------------------------------------------------------------------
  2398                           ;! (3) _CANSetID                                             3     1      2      66
  2399                           ;!                                             18 COMRAM     3     1      2
  2400                           ;! ---------------------------------------------------------------------------------
  2401                           ;! (1) _delayms                                              4     2      2     115
  2402                           ;!                                             22 COMRAM     4     2      2
  2403                           ;!                            _delayus
  2404                           ;! ---------------------------------------------------------------------------------
  2405                           ;! (2) _delayus                                              4     2      2      69
  2406                           ;!                                             18 COMRAM     4     2      2
  2407                           ;! ---------------------------------------------------------------------------------
  2408                           ;! (1) _PORTInit                                             0     0      0       0
  2409                           ;! ---------------------------------------------------------------------------------
  2410                           ;! (1) _IntManager                                           0     0      0       0
  2411                           ;! ---------------------------------------------------------------------------------
  2412                           ;! (1) _CANDATAAnalyzing                                     9     4      5    5199
  2413                           ;!                                             12 BANK0      9     4      5
  2414                           ;!                     _CANSendConfirm
  2415                           ;!                          _CANSendID
  2416                           ;!                         _CANWriteID
  2417                           ;!                         _EEPROMRead
  2418                           ;!                            _CANSend
  2419                           ;!                 _YFlashNewConfigure
  2420                           ;!                    _Read_YFlash_CFG
  2421                           ;! ---------------------------------------------------------------------------------
  2422                           ;! (2) _CANSendConfirm                                       2     2      0     684
  2423                           ;!                                             23 COMRAM     2     2      0
  2424                           ;!                            _CANSend
  2425                           ;! ---------------------------------------------------------------------------------
  2426                           ;! (2) _CANWriteID                                           2     1      1     816
  2427                           ;!                                             26 COMRAM     2     1      1
  2428                           ;!                        _EEPROMWrite
  2429                           ;!                          _CANSendID
  2430                           ;! ---------------------------------------------------------------------------------
  2431                           ;! (3) _CANSendID                                            2     1      1     705
  2432                           ;!                                             24 COMRAM     2     1      1
  2433                           ;!                         _EEPROMRead
  2434                           ;!                            _CANSend
  2435                           ;! ---------------------------------------------------------------------------------
  2436                           ;! (2) _CANSend                                              5     0      5     594
  2437                           ;!                                             18 COMRAM     5     0      5
  2438                           ;! ---------------------------------------------------------------------------------
  2439                           ;! (2) _YFlashNewConfigure                                   1     1      0    2098
  2440                           ;!                                             58 COMRAM     1     1      0
  2441                           ;!                         _EEPROMRead
  2442                           ;!                        _EEPROMWrite
  2443                           ;!           _CalculateTime25msCounter
  2444                           ;! ---------------------------------------------------------------------------------
  2445                           ;! (3) _EEPROMWrite                                          6     0      6      89
  2446                           ;!                                             18 COMRAM     6     0      6
  2447                           ;! ---------------------------------------------------------------------------------
  2448                           ;! (3) _CalculateTime25msCounter                            12    10      2    1920
  2449                           ;!                                              0 BANK0     12    10      2
  2450                           ;!                            ___ftmul
  2451                           ;!                            ___fttol
  2452                           ;!                            ___lwdiv
  2453                           ;! ---------------------------------------------------------------------------------
  2454                           ;! (1) _HeartbeatTest                                        1     1      0      89
  2455                           ;!                                             25 COMRAM     1     1      0
  2456                           ;!                    _Read_YFlash_CFG
  2457                           ;! ---------------------------------------------------------------------------------
  2458                           ;! (2) _Read_YFlash_CFG                                      1     1      0      89
  2459                           ;!                                             24 COMRAM     1     1      0
  2460                           ;!                         _EEPROMRead
  2461                           ;! ---------------------------------------------------------------------------------
  2462                           ;! (3) _EEPROMRead                                           6     0      6      89
  2463                           ;!                                             18 COMRAM     6     0      6
  2464                           ;! ---------------------------------------------------------------------------------
  2465                           ;! (4) ___ftmul                                             17    11      6     800
  2466                           ;!                                             26 COMRAM    17    11      6
  2467                           ;!                           ___ftpack
  2468                           ;! ---------------------------------------------------------------------------------
  2469                           ;! (5) ___ftpack                                             8     3      5     312
  2470                           ;!                                             18 COMRAM     8     3      5
  2471                           ;! ---------------------------------------------------------------------------------
  2472                           ;! (4) ___fttol                                             15    11      4     371
  2473                           ;!                                             43 COMRAM    15    11      4
  2474                           ;!                            ___ftmul (ARG)
  2475                           ;! ---------------------------------------------------------------------------------
  2476                           ;! (4) ___lwdiv                                              8     4      4     241
  2477                           ;!                                             18 COMRAM     8     4      4
  2478                           ;! ---------------------------------------------------------------------------------
  2479                           ;! Estimated maximum stack depth 5
  2480                           ;! ---------------------------------------------------------------------------------
  2481                           ;! (Depth) Function   	        Calls       Base Space   Used Autos Params    Refs
  2482                           ;! ---------------------------------------------------------------------------------
  2483                           ;! (6) _IntServer                                           14    14      0       0
  2484                           ;!                                              4 COMRAM    14    14      0
  2485                           ;!                      _TMR0IntServer
  2486                           ;!                      _TMR1IntServer
  2487                           ;!                        _ADIntServer
  2488                           ;! ---------------------------------------------------------------------------------
  2489                           ;! (7) _TMR0IntServer                                        0     0      0       0
  2490                           ;! ---------------------------------------------------------------------------------
  2491                           ;! (7) _TMR1IntServer                                        0     0      0       0
  2492                           ;!                        _YellowFlash
  2493                           ;! ---------------------------------------------------------------------------------
  2494                           ;! (8) _YellowFlash                                          0     0      0       0
  2495                           ;!                        _LED_On_Disp
  2496                           ;!                       _LED_Off_Disp
  2497                           ;! ---------------------------------------------------------------------------------
  2498                           ;! (9) _LED_On_Disp                                          0     0      0       0
  2499                           ;! ---------------------------------------------------------------------------------
  2500                           ;! (9) _LED_Off_Disp                                         0     0      0       0
  2501                           ;! ---------------------------------------------------------------------------------
  2502                           ;! (7) _ADIntServer                                          4     4      0       0
  2503                           ;!                                              0 COMRAM     4     4      0
  2504                           ;! ---------------------------------------------------------------------------------
  2505                           ;! Estimated maximum stack depth 9
  2506                           ;! ---------------------------------------------------------------------------------
  2507                           ;!
  2508                           ;! Call Graph Graphs:
  2509                           ;!
  2510                           ;! _main (ROOT)
  2511                           ;!   _delayms
  2512                           ;!     _delayus
  2513                           ;!   _PORTInit
  2514                           ;!   _IntManager
  2515                           ;!   _GetAddr
  2516                           ;!     _GetLampBoardAddr
  2517                           ;!   _CANInit
  2518                           ;!     _CANSetID
  2519                           ;!     _CANFilterSet
  2520                           ;!     _CANErrClr
  2521                           ;!     _GetAddr (ARG)
  2522                           ;!       _GetLampBoardAddr
  2523                           ;!   _CANRecv
  2524                           ;!     _GetAddr
  2525                           ;!       _GetLampBoardAddr
  2526                           ;!     _CANInit
  2527                           ;!       _CANSetID
  2528                           ;!       _CANFilterSet
  2529                           ;!       _CANErrClr
  2530                           ;!       _GetAddr (ARG)
  2531                           ;!         _GetLampBoardAddr
  2532                           ;!   _CANDATAAnalyzing
  2533                           ;!     _CANSendConfirm
  2534                           ;!       _CANSend
  2535                           ;!     _CANSendID
  2536                           ;!       _EEPROMRead
  2537                           ;!       _CANSend
  2538                           ;!     _CANWriteID
  2539                           ;!       _EEPROMWrite
  2540                           ;!       _CANSendID
  2541                           ;!         _EEPROMRead
  2542                           ;!         _CANSend
  2543                           ;!     _EEPROMRead
  2544                           ;!     _CANSend
  2545                           ;!     _YFlashNewConfigure
  2546                           ;!       _EEPROMRead
  2547                           ;!       _EEPROMWrite
  2548                           ;!       _CalculateTime25msCounter
  2549                           ;!         ___ftmul
  2550                           ;!           ___ftpack
  2551                           ;!         ___fttol
  2552                           ;!           ___ftmul (ARG)
  2553                           ;!             ___ftpack
  2554                           ;!         ___lwdiv
  2555                           ;!     _Read_YFlash_CFG
  2556                           ;!       _EEPROMRead
  2557                           ;!   _HeartbeatTest
  2558                           ;!     _Read_YFlash_CFG
  2559                           ;!       _EEPROMRead
  2560                           ;!
  2561                           ;! _IntServer (ROOT)
  2562                           ;!   _TMR0IntServer
  2563                           ;!   _TMR1IntServer
  2564                           ;!     _YellowFlash
  2565                           ;!       _LED_On_Disp
  2566                           ;!       _LED_Off_Disp
  2567                           ;!   _ADIntServer
  2568                           ;!
  2569                           
  2570                           ;! Address spaces:
  2571                           
  2572                           ;!Name               Size   Autos  Total    Cost      Usage
  2573                           ;!BIGRAM             E40      0     280      35       17.5%
  2574                           ;!EEDATA             400      0       0       0        0.0%
  2575                           ;!BITBANK13          100      0       0      31        0.0%
  2576                           ;!BANK13             100      0       0      32        0.0%
  2577                           ;!BITBANK12          100      0       0      29        0.0%
  2578                           ;!BANK12             100      0       0      30        0.0%
  2579                           ;!BITBANK11          100      0       0      27        0.0%
  2580                           ;!BANK11             100      0       0      28        0.0%
  2581                           ;!BITBANK10          100      0       0      25        0.0%
  2582                           ;!BANK10             100      0       0      26        0.0%
  2583                           ;!BITBANK9           100      0       0      23        0.0%
  2584                           ;!BANK9              100      0       0      24        0.0%
  2585                           ;!BITBANK8           100      0       0      21        0.0%
  2586                           ;!BANK8              100      0       0      22        0.0%
  2587                           ;!BITBANK7           100      0       0      19        0.0%
  2588                           ;!BANK7              100      0       0      20        0.0%
  2589                           ;!BITBANK6           100      0       0      17        0.0%
  2590                           ;!BANK6              100      0       0      18        0.0%
  2591                           ;!BITBANK5           100      0       0      15        0.0%
  2592                           ;!BANK5              100      0       0      16        0.0%
  2593                           ;!BITBANK4           100      0       0      13        0.0%
  2594                           ;!BANK4              100      0       0      14        0.0%
  2595                           ;!BITBANK3           100      0       0      11        0.0%
  2596                           ;!BANK3              100      0       0      12        0.0%
  2597                           ;!BITBANK2           100      0       0       9        0.0%
  2598                           ;!BANK2              100      0       0      10        0.0%
  2599                           ;!BITBANK1           100      0       0       7        0.0%
  2600                           ;!BANK1              100      0      30       8       18.8%
  2601                           ;!BITBANK0            A0      0       0       4        0.0%
  2602                           ;!BANK0               A0     16      8E       5       88.8%
  2603                           ;!BITCOMRAM           5F      0       1       0        1.1%
  2604                           ;!COMRAM              5F     3B      4D       1       81.1%
  2605                           ;!BITBANK14           41      0       0      33        0.0%
  2606                           ;!BANK14              41      0       0      34        0.0%
  2607                           ;!BITSFR_2             0      0       0      40        0.0%
  2608                           ;!SFR_2                0      0       0      40        0.0%
  2609                           ;!BITSFR_1             0      0       0      40        0.0%
  2610                           ;!SFR_1                0      0       0      40        0.0%
  2611                           ;!BITSFR               0      0       0      40        0.0%
  2612                           ;!SFR                  0      0       0      40        0.0%
  2613                           ;!STACK                0      0       D       2        0.0%
  2614                           ;!NULL                 0      0       0       0        0.0%
  2615                           ;!ABS                  0      0     10B       6        0.0%
  2616                           ;!DATA                 0      0     398       3        0.0%
  2617                           ;!CODE                 0      0       0       0        0.0%
  2618                           
  2619                           	global	_main
  2620                           
  2621 ;; *************** function _main *****************
  2622 ;; Defined at:
  2623 ;;		line 786 in file "E:\WorkSpace\YellowFlashingController20140317\YellowFlash.C"
  2624 ;; Parameters:    Size  Location     Type
  2625 ;;		None
  2626 ;; Auto vars:     Size  Location     Type
  2627 ;;		None
  2628 ;; Return value:  Size  Location     Type
  2629 ;;		None               void
  2630 ;; Registers used:
  2631 ;;		wreg, fsr1l, fsr1h, fsr2l, fsr2h, status,2, status,0, prodl, prodh, cstack
  2632 ;; Tracked objects:
  2633 ;;		On entry : 0/0
  2634 ;;		On exit  : 0/0
  2635 ;;		Unchanged: 0/0
  2636 ;; Data sizes:     COMRAM   BANK0   BANK1   BANK2   BANK3   BANK4   BANK5   BANK6   BANK7   BANK8   BANK9  BANK10  BANK1
       1  BANK12  BANK13  BANK14
  2637 ;;      Params:         0       0       0       0       0       0       0       0       0       0       0       0       
       0       0       0       0
  2638 ;;      Locals:         0       0       0       0       0       0       0       0       0       0       0       0       
       0       0       0       0
  2639 ;;      Temps:          0       1       0       0       0       0       0       0       0       0       0       0       
       0       0       0       0
  2640 ;;      Totals:         0       1       0       0       0       0       0       0       0       0       0       0       
       0       0       0       0
  2641 ;;Total ram usage:        1 bytes
  2642 ;; Hardware stack levels required when called:    9
  2643 ;; This function calls:
  2644 ;;		_delayms
  2645 ;;		_PORTInit
  2646 ;;		_IntManager
  2647 ;;		_GetAddr
  2648 ;;		_CANInit
  2649 ;;		_CANRecv
  2650 ;;		_CANDATAAnalyzing
  2651 ;;		_HeartbeatTest
  2652 ;; This function is called by:
  2653 ;;		Startup code after reset
  2654 ;; This function uses a non-reentrant model
  2655 ;;
  2656                           psect	text0,class=CODE,space=0,reloc=2
  2657                           global __ptext0
  2658  00140E                     __ptext0:
  2659                           psect	text0
  2660                           	file	"E:\WorkSpace\YellowFlashingController20140317\YellowFlash.C"
  2661                           	line	786
  2662                           	global	__size_of_main
  2663  0000                     	__size_of_main	equ	__end_of_main-_main
  2664                           	
  2665  00140E                     _main:
  2666                           	opt	stack 22
  2667                           	line	789
  2668                           	
  2669  00140E                     l4931:
  2670                           ;YellowFlash.C: 789: delayms(500);
  2671  00140E  0E01               	movlw	high(01F4h)
  2672  001410  6E18               	movwf	((c:?_delayms+1)),c
  2673  001412  0EF4               	movlw	low(01F4h)
  2674  001414  6E17               	movwf	((c:?_delayms)),c
  2675  001416  EC56  F00D         	call	_delayms	;wreg free
  2676                           	line	790
  2677                           	
  2678  00141A                     l4933:
  2679                           ;YellowFlash.C: 790: PORTInit();
  2680  00141A  ECBC  F00D         	call	_PORTInit	;wreg free
  2681                           	line	791
  2682                           	
  2683  00141E                     l4935:
  2684                           ;YellowFlash.C: 791: IntManager();
  2685  00141E  EC86  F00D         	call	_IntManager	;wreg free
  2686                           	line	792
  2687                           	
  2688  001422                     l4937:
  2689                           ;YellowFlash.C: 792: my_addr =GetAddr(0x06);
  2690  001422  0100               	movlb	0	; () banked
  2691  001424  6FED               	movwf	(??_main+0+0)&0ffh
  2692  001426  0E06               	movlw	low(06h)
  2693  001428  6E17               	movwf	((c:?_GetAddr)),c
  2694  00142A  0100               	movlb	0	; () banked
  2695  00142C  51ED               	movf	(??_main+0+0)&0ffh,w
  2696  00142E  EC45  F00C         	call	_GetAddr	;wreg free
  2697  001432  6E40               	movwf	((c:_my_addr)),c
  2698                           	line	793
  2699                           	
  2700  001434                     l4939:
  2701                           ;YellowFlash.C: 793: CANInit(my_addr);
  2702  001434  C040  F01A         	movff	(c:_my_addr),(c:?_CANInit)
  2703  001438  ECED  F00A         	call	_CANInit	;wreg free
  2704                           	line	794
  2705                           	
  2706  00143C                     l4941:
  2707                           ;YellowFlash.C: 794: sta = 0X01;
  2708  00143C  0100               	movlb	0	; () banked
  2709  00143E  6FED               	movwf	(??_main+0+0)&0ffh
  2710  001440  0E01               	movlw	low(01h)
  2711  001442  0100               	movlb	0	; () banked
  2712  001444  0100               	movlb	0	; () banked
  2713  001446  6FBE               	movwf	((_sta))&0ffh
  2714  001448  0100               	movlb	0	; () banked
  2715  00144A  51ED               	movf	(??_main+0+0)&0ffh,w
  2716  00144C  D000               	goto	l4943
  2717                           	line	795
  2718                           ;YellowFlash.C: 795: while(1)
  2719                           	
  2720  00144E                     l592:
  2721                           	line	798
  2722                           	
  2723  00144E                     l4943:
  2724                           ;YellowFlash.C: 797: {
  2725                           ;YellowFlash.C: 798: CANInt =0;
  2726  00144E  0100               	movlb	(_CANInt/8) >> 8
  2727  001450  904D               	bcf	(_CANInt/8),c,(_CANInt)&7
  2728                           	line	800
  2729                           	
  2730  001452                     l4945:
  2731                           ;YellowFlash.C: 800: if(CANRecv(CANRid,CANRdata,&CANRdlc))
  2732  001452  0100               	movlb	0	; () banked
  2733  001454  0E00               	movlw	high(_CANRid)
  2734  001456  6E1D               	movwf	((c:?_CANRecv+1)),c
  2735  001458  0100               	movlb	0	; () banked
  2736  00145A  0ED0               	movlw	low(_CANRid)
  2737  00145C  6E1C               	movwf	((c:?_CANRecv)),c
  2738  00145E  0100               	movlb	0	; () banked
  2739  001460  0E00               	movlw	high(_CANRdata)
  2740  001462  6E1F               	movwf	(1+((c:?_CANRecv)+02h)),c
  2741  001464  0100               	movlb	0	; () banked
  2742  001466  0EC0               	movlw	low(_CANRdata)
  2743  001468  6E1E               	movwf	(0+((c:?_CANRecv)+02h)),c
  2744  00146A  0E00               	movlw	high((c:_CANRdlc))
  2745  00146C  6E21               	movwf	(1+((c:?_CANRecv)+04h)),c
  2746  00146E  0E4B               	movlw	low((c:_CANRdlc))
  2747  001470  6E20               	movwf	(0+((c:?_CANRecv)+04h)),c
  2748  001472  EC55  F002         	call	_CANRecv	;wreg free
  2749  001476  A0D8               	btfss	status,0
  2750  001478  D001               	goto	u3841
  2751  00147A  D001               	goto	u3840
  2752  00147C                     u3841:
  2753  00147C  D017               	goto	l4949
  2754  00147E                     u3840:
  2755                           	line	803
  2756                           	
  2757  00147E                     l4947:
  2758                           ;YellowFlash.C: 801: {
  2759                           ;YellowFlash.C: 803: CANDATAAnalyzing(CANRid,CANRdata,CANRdlc);
  2760  00147E  0100               	movlb	0	; () banked
  2761  001480  0E00               	movlw	high(_CANRid)
  2762  001482  0100               	movlb	0	; () banked
  2763  001484  0100               	movlb	0	; () banked
  2764  001486  6FE5               	movwf	((?_CANDATAAnalyzing+1))&0ffh
  2765  001488  0100               	movlb	0	; () banked
  2766  00148A  0ED0               	movlw	low(_CANRid)
  2767  00148C  0100               	movlb	0	; () banked
  2768  00148E  6FE4               	movwf	((?_CANDATAAnalyzing))&0ffh
  2769  001490  0100               	movlb	0	; () banked
  2770  001492  0E00               	movlw	high(_CANRdata)
  2771  001494  0100               	movlb	0	; () banked
  2772  001496  0100               	movlb	0	; () banked
  2773  001498  6FE7               	movwf	(1+(?_CANDATAAnalyzing+02h))&0ffh
  2774  00149A  0100               	movlb	0	; () banked
  2775  00149C  0EC0               	movlw	low(_CANRdata)
  2776  00149E  0100               	movlb	0	; () banked
  2777  0014A0  6FE6               	movwf	(0+(?_CANDATAAnalyzing+02h))&0ffh
  2778  0014A2  C04B  F0E8         	movff	(c:_CANRdlc),0+(?_CANDATAAnalyzing+04h)
  2779  0014A6  EC6B  F000         	call	_CANDATAAnalyzing	;wreg free
  2780  0014AA  D000               	goto	l4949
  2781                           	line	804
  2782                           	
  2783  0014AC                     l593:
  2784                           	line	806
  2785                           	
  2786  0014AC                     l4949:
  2787                           ;YellowFlash.C: 804: }
  2788                           ;YellowFlash.C: 806: if(force_status)
  2789  0014AC  503F               	movf	((c:_force_status)),c,w
  2790  0014AE  B4D8               	btfsc	status,2
  2791  0014B0  D001               	goto	u3851
  2792  0014B2  D001               	goto	u3850
  2793  0014B4                     u3851:
  2794  0014B4  D002               	goto	l4953
  2795  0014B6                     u3850:
  2796  0014B6  D7CB               	goto	l4943
  2797                           	line	807
  2798                           	
  2799  0014B8                     l4951:
  2800                           ;YellowFlash.C: 807: {}
  2801  0014B8  D7CA               	goto	l4943
  2802                           	line	808
  2803                           	
  2804  0014BA                     l594:
  2805                           	line	810
  2806                           	
  2807  0014BA                     l4953:
  2808                           ;YellowFlash.C: 808: else
  2809                           ;YellowFlash.C: 809: {
  2810                           ;YellowFlash.C: 810: HeartbeatTest();
  2811  0014BA  EC29  F00B         	call	_HeartbeatTest	;wreg free
  2812  0014BE  D7C7               	goto	l4943
  2813                           	line	811
  2814                           	
  2815  0014C0                     l595:
  2816  0014C0  D7C6               	goto	l4943
  2817                           	line	813
  2818                           	
  2819  0014C2                     l596:
  2820                           	line	795
  2821  0014C2  D7C5               	goto	l4943
  2822                           	
  2823  0014C4                     l597:
  2824                           	line	815
  2825                           	
  2826  0014C4                     l598:
  2827                           	global	start
  2828  0014C4  EF69  F000         	goto	start
  2829                           	opt stack 0
  2830                           GLOBAL	__end_of_main
  2831  0014C8                     	__end_of_main:
  2832                           	signat	_main,88
  2833                           	global	_CANRecv
  2834                           
  2835 ;; *************** function _CANRecv *****************
  2836 ;; Defined at:
  2837 ;;		line 259 in file "E:\WorkSpace\YellowFlashingController20140317\CAN.H"
  2838 ;; Parameters:    Size  Location     Type
  2839 ;;  id              2   27[COMRAM] PTR unsigned char 
  2840 ;;		 -> CANRid(4), 
  2841 ;;  dat             2   29[COMRAM] PTR unsigned char 
  2842 ;;		 -> CANRdata(8), 
  2843 ;;  dlc             2   31[COMRAM] PTR unsigned char 
  2844 ;;		 -> CANRdlc(1), 
  2845 ;; Auto vars:     Size  Location     Type
  2846 ;;		None
  2847 ;; Return value:  Size  Location     Type
  2848 ;;		None               void
  2849 ;; Registers used:
  2850 ;;		wreg, fsr2l, fsr2h, status,2, status,0, cstack
  2851 ;; Tracked objects:
  2852 ;;		On entry : F/0
  2853 ;;		On exit  : 0/0
  2854 ;;		Unchanged: 0/0
  2855 ;; Data sizes:     COMRAM   BANK0   BANK1   BANK2   BANK3   BANK4   BANK5   BANK6   BANK7   BANK8   BANK9  BANK10  BANK1
       1  BANK12  BANK13  BANK14
  2856 ;;      Params:         6       0       0       0       0       0       0       0       0       0       0       0       
       0       0       0       0
  2857 ;;      Locals:         0       0       0       0       0       0       0       0       0       0       0       0       
       0       0       0       0
  2858 ;;      Temps:          1       0       0       0       0       0       0       0       0       0       0       0       
       0       0       0       0
  2859 ;;      Totals:         7       0       0       0       0       0       0       0       0       0       0       0       
       0       0       0       0
  2860 ;;Total ram usage:        7 bytes
  2861 ;; Hardware stack levels used:    1
  2862 ;; Hardware stack levels required when called:    6
  2863 ;; This function calls:
  2864 ;;		_GetAddr
  2865 ;;		_CANInit
  2866 ;; This function is called by:
  2867 ;;		_main
  2868 ;; This function uses a non-reentrant model
  2869 ;;
  2870                           psect	text1,class=CODE,space=0,reloc=2
  2871                           global __ptext1
  2872  0004AA                     __ptext1:
  2873                           psect	text1
  2874                           	file	"E:\WorkSpace\YellowFlashingController20140317\CAN.H"
  2875                           	line	259
  2876                           	global	__size_of_CANRecv
  2877  0000                     	__size_of_CANRecv	equ	__end_of_CANRecv-_CANRecv
  2878                           	
  2879  0004AA                     _CANRecv:
  2880                           	opt	stack 24
  2881                           	line	262
  2882                           	
  2883  0004AA                     l3661:; BSR set to: 0
  2884                           
  2885                           ;CAN.H: 262: if(RXB0IF ==1)
  2886  0004AA  A077               	btfss	c:(31672/8),(31672)&7	;volatile
  2887  0004AC  D001               	goto	u2561
  2888  0004AE  D001               	goto	u2560
  2889  0004B0                     u2561:
  2890  0004B0  D067               	goto	l360
  2891  0004B2                     u2560:
  2892                           	line	264
  2893                           	
  2894  0004B2                     l3663:
  2895                           ;CAN.H: 263: {
  2896                           ;CAN.H: 264: RXB0IF =0;
  2897  0004B2  9077               	bcf	c:(31672/8),(31672)&7	;volatile
  2898                           	line	265
  2899                           	
  2900  0004B4                     l3665:
  2901                           ;CAN.H: 265: RXB0CON &= 0x7f;
  2902  0004B4  9E60               	bcf	(0+(7/8)+(c:3936)),c,(7)&7	;volatile
  2903                           	line	266
  2904                           	
  2905  0004B6                     l3667:
  2906                           ;CAN.H: 266: id[0] = RXB0SIDH;
  2907  0004B6  C01C  FFD9         	movff	(c:CANRecv@id),fsr2l
  2908  0004BA  C01D  FFDA         	movff	(c:CANRecv@id+1),fsr2h
  2909  0004BE  CF61 FFDF          	movff	(c:3937),indf2	;volatile
  2910                           
  2911                           	line	267
  2912                           	
  2913  0004C2                     l3669:
  2914                           ;CAN.H: 267: id[1] = RXB0SIDL;
  2915  0004C2  EE20 F001          	lfsr	2,01h
  2916  0004C6  501C               	movf	((c:CANRecv@id)),c,w
  2917  0004C8  26D9               	addwf	fsr2l
  2918  0004CA  501D               	movf	((c:CANRecv@id+1)),c,w
  2919  0004CC  22DA               	addwfc	fsr2h
  2920  0004CE  CF62 FFDF          	movff	(c:3938),indf2	;volatile
  2921                           
  2922                           	line	268
  2923                           	
  2924  0004D2                     l3671:
  2925                           ;CAN.H: 268: id[2] = RXB0EIDH;
  2926  0004D2  EE20 F002          	lfsr	2,02h
  2927  0004D6  501C               	movf	((c:CANRecv@id)),c,w
  2928  0004D8  26D9               	addwf	fsr2l
  2929  0004DA  501D               	movf	((c:CANRecv@id+1)),c,w
  2930  0004DC  22DA               	addwfc	fsr2h
  2931  0004DE  CF63 FFDF          	movff	(c:3939),indf2	;volatile
  2932                           
  2933                           	line	269
  2934                           	
  2935  0004E2                     l3673:
  2936                           ;CAN.H: 269: id[3] = RXB0EIDL;
  2937  0004E2  EE20 F003          	lfsr	2,03h
  2938  0004E6  501C               	movf	((c:CANRecv@id)),c,w
  2939  0004E8  26D9               	addwf	fsr2l
  2940  0004EA  501D               	movf	((c:CANRecv@id+1)),c,w
  2941  0004EC  22DA               	addwfc	fsr2h
  2942  0004EE  CF64 FFDF          	movff	(c:3940),indf2	;volatile
  2943                           
  2944                           	line	271
  2945                           	
  2946  0004F2                     l3675:
  2947                           ;CAN.H: 271: *dlc =RXB0DLC;
  2948  0004F2  C020  FFD9         	movff	(c:CANRecv@dlc),fsr2l
  2949  0004F6  C021  FFDA         	movff	(c:CANRecv@dlc+1),fsr2h
  2950  0004FA  CF65 FFDF          	movff	(c:3941),indf2	;volatile
  2951                           
  2952                           	line	273
  2953                           	
  2954  0004FE                     l3677:
  2955                           ;CAN.H: 273: dat[0] = RXB0D0;
  2956  0004FE  C01E  FFD9         	movff	(c:CANRecv@dat),fsr2l
  2957  000502  C01F  FFDA         	movff	(c:CANRecv@dat+1),fsr2h
  2958  000506  CF66 FFDF          	movff	(c:3942),indf2	;volatile
  2959                           
  2960                           	line	274
  2961                           	
  2962  00050A                     l3679:
  2963                           ;CAN.H: 274: dat[1] = RXB0D1;
  2964  00050A  EE20 F001          	lfsr	2,01h
  2965  00050E  501E               	movf	((c:CANRecv@dat)),c,w
  2966  000510  26D9               	addwf	fsr2l
  2967  000512  501F               	movf	((c:CANRecv@dat+1)),c,w
  2968  000514  22DA               	addwfc	fsr2h
  2969  000516  CF67 FFDF          	movff	(c:3943),indf2	;volatile
  2970                           
  2971                           	line	275
  2972                           	
  2973  00051A                     l3681:
  2974                           ;CAN.H: 275: dat[2] = RXB0D2;
  2975  00051A  EE20 F002          	lfsr	2,02h
  2976  00051E  501E               	movf	((c:CANRecv@dat)),c,w
  2977  000520  26D9               	addwf	fsr2l
  2978  000522  501F               	movf	((c:CANRecv@dat+1)),c,w
  2979  000524  22DA               	addwfc	fsr2h
  2980  000526  CF68 FFDF          	movff	(c:3944),indf2	;volatile
  2981                           
  2982                           	line	276
  2983                           	
  2984  00052A                     l3683:
  2985                           ;CAN.H: 276: dat[3] = RXB0D3;
  2986  00052A  EE20 F003          	lfsr	2,03h
  2987  00052E  501E               	movf	((c:CANRecv@dat)),c,w
  2988  000530  26D9               	addwf	fsr2l
  2989  000532  501F               	movf	((c:CANRecv@dat+1)),c,w
  2990  000534  22DA               	addwfc	fsr2h
  2991  000536  CF69 FFDF          	movff	(c:3945),indf2	;volatile
  2992                           
  2993                           	line	277
  2994                           	
  2995  00053A                     l3685:
  2996                           ;CAN.H: 277: dat[4] = RXB0D4;
  2997  00053A  EE20 F004          	lfsr	2,04h
  2998  00053E  501E               	movf	((c:CANRecv@dat)),c,w
  2999  000540  26D9               	addwf	fsr2l
  3000  000542  501F               	movf	((c:CANRecv@dat+1)),c,w
  3001  000544  22DA               	addwfc	fsr2h
  3002  000546  CF6A FFDF          	movff	(c:3946),indf2	;volatile
  3003                           
  3004                           	line	278
  3005                           	
  3006  00054A                     l3687:
  3007                           ;CAN.H: 278: dat[5] = RXB0D5;
  3008  00054A  EE20 F005          	lfsr	2,05h
  3009  00054E  501E               	movf	((c:CANRecv@dat)),c,w
  3010  000550  26D9               	addwf	fsr2l
  3011  000552  501F               	movf	((c:CANRecv@dat+1)),c,w
  3012  000554  22DA               	addwfc	fsr2h
  3013  000556  CF6B FFDF          	movff	(c:3947),indf2	;volatile
  3014                           
  3015                           	line	279
  3016                           	
  3017  00055A                     l3689:
  3018                           ;CAN.H: 279: dat[6] = RXB0D6;
  3019  00055A  EE20 F006          	lfsr	2,06h
  3020  00055E  501E               	movf	((c:CANRecv@dat)),c,w
  3021  000560  26D9               	addwf	fsr2l
  3022  000562  501F               	movf	((c:CANRecv@dat+1)),c,w
  3023  000564  22DA               	addwfc	fsr2h
  3024  000566  CF6C FFDF          	movff	(c:3948),indf2	;volatile
  3025                           
  3026                           	line	280
  3027                           	
  3028  00056A                     l3691:
  3029                           ;CAN.H: 280: dat[7] = RXB0D7;
  3030  00056A  EE20 F007          	lfsr	2,07h
  3031  00056E  501E               	movf	((c:CANRecv@dat)),c,w
  3032  000570  26D9               	addwf	fsr2l
  3033  000572  501F               	movf	((c:CANRecv@dat+1)),c,w
  3034  000574  22DA               	addwfc	fsr2h
  3035  000576  CF6D FFDF          	movff	(c:3949),indf2	;volatile
  3036                           
  3037                           	line	281
  3038                           	
  3039  00057A                     l3693:
  3040                           ;CAN.H: 281: return 1;
  3041  00057A  80D8               	bsf	status,0
  3042  00057C  D0FF               	goto	l361
  3043                           	
  3044  00057E                     l3695:
  3045  00057E  D0FE               	goto	l361
  3046                           	line	282
  3047                           	
  3048  000580                     l360:
  3049                           	line	283
  3050                           ;CAN.H: 282: }
  3051                           ;CAN.H: 283: if(RXB1IF ==1)
  3052  000580  A277               	btfss	c:(31673/8),(31673)&7	;volatile
  3053  000582  D001               	goto	u2571
  3054  000584  D001               	goto	u2570
  3055  000586                     u2571:
  3056  000586  D076               	goto	l362
  3057  000588                     u2570:
  3058                           	line	285
  3059                           	
  3060  000588                     l3697:
  3061                           ;CAN.H: 284: {
  3062                           ;CAN.H: 285: RXB1IF =0;
  3063  000588  9277               	bcf	c:(31673/8),(31673)&7	;volatile
  3064                           	line	286
  3065                           	
  3066  00058A                     l3699:
  3067                           ;CAN.H: 286: RXB1CON &= 0x7f;
  3068  00058A  010F               	movlb	15	; () banked
  3069  00058C  010F               	movlb	15	; () banked
  3070  00058E  9F30               	bcf	(0+(7/8)+(3888))&0ffh,(7)&7	;volatile
  3071                           	line	287
  3072                           	
  3073  000590                     l3701:
  3074                           ;CAN.H: 287: id[0] = RXB1SIDH;
  3075  000590  C01C  FFD9         	movff	(c:CANRecv@id),fsr2l
  3076  000594  C01D  FFDA         	movff	(c:CANRecv@id+1),fsr2h
  3077  000598  010F               	movlb	15	; () banked
  3078  00059A  CF31 FFDF          	movff	(3889),indf2	;volatile
  3079                           
  3080                           	line	288
  3081                           	
  3082  00059E                     l3703:
  3083                           ;CAN.H: 288: id[1] = RXB1SIDL;
  3084  00059E  EE20 F001          	lfsr	2,01h
  3085  0005A2  501C               	movf	((c:CANRecv@id)),c,w
  3086  0005A4  26D9               	addwf	fsr2l
  3087  0005A6  501D               	movf	((c:CANRecv@id+1)),c,w
  3088  0005A8  22DA               	addwfc	fsr2h
  3089  0005AA  010F               	movlb	15	; () banked
  3090  0005AC  CF32 FFDF          	movff	(3890),indf2	;volatile
  3091                           
  3092                           	line	289
  3093                           	
  3094  0005B0                     l3705:
  3095                           ;CAN.H: 289: id[2] = RXB1EIDH;
  3096  0005B0  EE20 F002          	lfsr	2,02h
  3097  0005B4  501C               	movf	((c:CANRecv@id)),c,w
  3098  0005B6  26D9               	addwf	fsr2l
  3099  0005B8  501D               	movf	((c:CANRecv@id+1)),c,w
  3100  0005BA  22DA               	addwfc	fsr2h
  3101  0005BC  010F               	movlb	15	; () banked
  3102  0005BE  CF33 FFDF          	movff	(3891),indf2	;volatile
  3103                           
  3104                           	line	290
  3105                           	
  3106  0005C2                     l3707:
  3107                           ;CAN.H: 290: id[3] = RXB1EIDL;
  3108  0005C2  EE20 F003          	lfsr	2,03h
  3109  0005C6  501C               	movf	((c:CANRecv@id)),c,w
  3110  0005C8  26D9               	addwf	fsr2l
  3111  0005CA  501D               	movf	((c:CANRecv@id+1)),c,w
  3112  0005CC  22DA               	addwfc	fsr2h
  3113  0005CE  010F               	movlb	15	; () banked
  3114  0005D0  CF34 FFDF          	movff	(3892),indf2	;volatile
  3115                           
  3116                           	line	292
  3117                           	
  3118  0005D4                     l3709:
  3119                           ;CAN.H: 292: *dlc =RXB1DLC;
  3120  0005D4  C020  FFD9         	movff	(c:CANRecv@dlc),fsr2l
  3121  0005D8  C021  FFDA         	movff	(c:CANRecv@dlc+1),fsr2h
  3122  0005DC  010F               	movlb	15	; () banked
  3123  0005DE  CF35 FFDF          	movff	(3893),indf2	;volatile
  3124                           
  3125                           	line	294
  3126                           	
  3127  0005E2                     l3711:
  3128                           ;CAN.H: 294: dat[0] = RXB1D0;
  3129  0005E2  C01E  FFD9         	movff	(c:CANRecv@dat),fsr2l
  3130  0005E6  C01F  FFDA         	movff	(c:CANRecv@dat+1),fsr2h
  3131  0005EA  010F               	movlb	15	; () banked
  3132  0005EC  CF36 FFDF          	movff	(3894),indf2	;volatile
  3133                           
  3134                           	line	295
  3135                           	
  3136  0005F0                     l3713:
  3137                           ;CAN.H: 295: dat[1] = RXB1D1;
  3138  0005F0  EE20 F001          	lfsr	2,01h
  3139  0005F4  501E               	movf	((c:CANRecv@dat)),c,w
  3140  0005F6  26D9               	addwf	fsr2l
  3141  0005F8  501F               	movf	((c:CANRecv@dat+1)),c,w
  3142  0005FA  22DA               	addwfc	fsr2h
  3143  0005FC  010F               	movlb	15	; () banked
  3144  0005FE  CF37 FFDF          	movff	(3895),indf2	;volatile
  3145                           
  3146                           	line	296
  3147                           	
  3148  000602                     l3715:
  3149                           ;CAN.H: 296: dat[2] = RXB1D2;
  3150  000602  EE20 F002          	lfsr	2,02h
  3151  000606  501E               	movf	((c:CANRecv@dat)),c,w
  3152  000608  26D9               	addwf	fsr2l
  3153  00060A  501F               	movf	((c:CANRecv@dat+1)),c,w
  3154  00060C  22DA               	addwfc	fsr2h
  3155  00060E  010F               	movlb	15	; () banked
  3156  000610  CF38 FFDF          	movff	(3896),indf2	;volatile
  3157                           
  3158                           	line	297
  3159                           	
  3160  000614                     l3717:
  3161                           ;CAN.H: 297: dat[3] = RXB1D3;
  3162  000614  EE20 F003          	lfsr	2,03h
  3163  000618  501E               	movf	((c:CANRecv@dat)),c,w
  3164  00061A  26D9               	addwf	fsr2l
  3165  00061C  501F               	movf	((c:CANRecv@dat+1)),c,w
  3166  00061E  22DA               	addwfc	fsr2h
  3167  000620  010F               	movlb	15	; () banked
  3168  000622  CF39 FFDF          	movff	(3897),indf2	;volatile
  3169                           
  3170                           	line	298
  3171                           	
  3172  000626                     l3719:
  3173                           ;CAN.H: 298: dat[4] = RXB1D4;
  3174  000626  EE20 F004          	lfsr	2,04h
  3175  00062A  501E               	movf	((c:CANRecv@dat)),c,w
  3176  00062C  26D9               	addwf	fsr2l
  3177  00062E  501F               	movf	((c:CANRecv@dat+1)),c,w
  3178  000630  22DA               	addwfc	fsr2h
  3179  000632  010F               	movlb	15	; () banked
  3180  000634  CF3A FFDF          	movff	(3898),indf2	;volatile
  3181                           
  3182                           	line	299
  3183                           	
  3184  000638                     l3721:
  3185                           ;CAN.H: 299: dat[5] = RXB1D5;
  3186  000638  EE20 F005          	lfsr	2,05h
  3187  00063C  501E               	movf	((c:CANRecv@dat)),c,w
  3188  00063E  26D9               	addwf	fsr2l
  3189  000640  501F               	movf	((c:CANRecv@dat+1)),c,w
  3190  000642  22DA               	addwfc	fsr2h
  3191  000644  010F               	movlb	15	; () banked
  3192  000646  CF3B FFDF          	movff	(3899),indf2	;volatile
  3193                           
  3194                           	line	300
  3195                           	
  3196  00064A                     l3723:
  3197                           ;CAN.H: 300: dat[6] = RXB1D6;
  3198  00064A  EE20 F006          	lfsr	2,06h
  3199  00064E  501E               	movf	((c:CANRecv@dat)),c,w
  3200  000650  26D9               	addwf	fsr2l
  3201  000652  501F               	movf	((c:CANRecv@dat+1)),c,w
  3202  000654  22DA               	addwfc	fsr2h
  3203  000656  010F               	movlb	15	; () banked
  3204  000658  CF3C FFDF          	movff	(3900),indf2	;volatile
  3205                           
  3206                           	line	301
  3207                           	
  3208  00065C                     l3725:
  3209                           ;CAN.H: 301: dat[7] = RXB1D7;
  3210  00065C  EE20 F007          	lfsr	2,07h
  3211  000660  501E               	movf	((c:CANRecv@dat)),c,w
  3212  000662  26D9               	addwf	fsr2l
  3213  000664  501F               	movf	((c:CANRecv@dat+1)),c,w
  3214  000666  22DA               	addwfc	fsr2h
  3215  000668  010F               	movlb	15	; () banked
  3216  00066A  CF3D FFDF          	movff	(3901),indf2	;volatile
  3217                           
  3218                           	line	302
  3219                           	
  3220  00066E                     l3727:
  3221                           ;CAN.H: 302: return 1;
  3222  00066E  80D8               	bsf	status,0
  3223  000670  D085               	goto	l361
  3224                           	
  3225  000672                     l3729:
  3226  000672  D084               	goto	l361
  3227                           	line	304
  3228                           	
  3229  000674                     l362:
  3230                           	line	305
  3231                           ;CAN.H: 304: }
  3232                           ;CAN.H: 305: if(TXB0IF ==1)
  3233  000674  A477               	btfss	c:(31674/8),(31674)&7	;volatile
  3234  000676  D001               	goto	u2581
  3235  000678  D001               	goto	u2580
  3236  00067A                     u2581:
  3237  00067A  D001               	goto	l363
  3238  00067C                     u2580:
  3239                           	line	307
  3240                           	
  3241  00067C                     l3731:
  3242                           ;CAN.H: 306: {
  3243                           ;CAN.H: 307: TXB0IF =0;
  3244  00067C  9477               	bcf	c:(31674/8),(31674)&7	;volatile
  3245                           	line	308
  3246                           	
  3247  00067E                     l363:
  3248                           	line	309
  3249                           ;CAN.H: 308: }
  3250                           ;CAN.H: 309: if(TXB1IF ==1)
  3251  00067E  A677               	btfss	c:(31675/8),(31675)&7	;volatile
  3252  000680  D001               	goto	u2591
  3253  000682  D001               	goto	u2590
  3254  000684                     u2591:
  3255  000684  D001               	goto	l364
  3256  000686                     u2590:
  3257                           	line	311
  3258                           	
  3259  000686                     l3733:
  3260                           ;CAN.H: 310: {
  3261                           ;CAN.H: 311: TXB1IF =0;
  3262  000686  9677               	bcf	c:(31675/8),(31675)&7	;volatile
  3263                           	line	312
  3264                           	
  3265  000688                     l364:
  3266                           	line	313
  3267                           ;CAN.H: 312: }
  3268                           ;CAN.H: 313: if(TXB2IF ==1)
  3269  000688  A877               	btfss	c:(31676/8),(31676)&7	;volatile
  3270  00068A  D001               	goto	u2601
  3271  00068C  D001               	goto	u2600
  3272  00068E                     u2601:
  3273  00068E  D001               	goto	l365
  3274  000690                     u2600:
  3275                           	line	315
  3276                           	
  3277  000690                     l3735:
  3278                           ;CAN.H: 314: {
  3279                           ;CAN.H: 315: TXB2IF =0;
  3280  000690  9877               	bcf	c:(31676/8),(31676)&7	;volatile
  3281                           	line	316
  3282                           	
  3283  000692                     l365:
  3284                           	line	318
  3285                           ;CAN.H: 316: }
  3286                           ;CAN.H: 318: if(ERRIF ==1)
  3287  000692  AA77               	btfss	c:(31677/8),(31677)&7	;volatile
  3288  000694  D001               	goto	u2611
  3289  000696  D001               	goto	u2610
  3290  000698                     u2611:
  3291  000698  D06F               	goto	l3771
  3292  00069A                     u2610:
  3293                           	line	320
  3294                           	
  3295  00069A                     l3737:
  3296                           ;CAN.H: 319: {
  3297                           ;CAN.H: 320: ERRIF =0;
  3298  00069A  9A77               	bcf	c:(31677/8),(31677)&7	;volatile
  3299                           	line	322
  3300                           	
  3301  00069C                     l3739:
  3302                           ;CAN.H: 322: id[0] = 0;
  3303  00069C  C01C  FFD9         	movff	(c:CANRecv@id),fsr2l
  3304  0006A0  C01D  FFDA         	movff	(c:CANRecv@id+1),fsr2h
  3305  0006A4  0E00               	movlw	low(0)
  3306  0006A6  6EDF               	movwf	indf2
  3307                           	line	323
  3308                           	
  3309  0006A8                     l3741:
  3310                           ;CAN.H: 323: id[1] = 0;
  3311  0006A8  EE20 F001          	lfsr	2,01h
  3312  0006AC  501C               	movf	((c:CANRecv@id)),c,w
  3313  0006AE  26D9               	addwf	fsr2l
  3314  0006B0  501D               	movf	((c:CANRecv@id+1)),c,w
  3315  0006B2  22DA               	addwfc	fsr2h
  3316  0006B4  0E00               	movlw	low(0)
  3317  0006B6  6EDF               	movwf	indf2
  3318                           	line	324
  3319                           	
  3320  0006B8                     l3743:
  3321                           ;CAN.H: 324: id[2] = 0;
  3322  0006B8  EE20 F002          	lfsr	2,02h
  3323  0006BC  501C               	movf	((c:CANRecv@id)),c,w
  3324  0006BE  26D9               	addwf	fsr2l
  3325  0006C0  501D               	movf	((c:CANRecv@id+1)),c,w
  3326  0006C2  22DA               	addwfc	fsr2h
  3327  0006C4  0E00               	movlw	low(0)
  3328  0006C6  6EDF               	movwf	indf2
  3329                           	line	325
  3330                           	
  3331  0006C8                     l3745:
  3332                           ;CAN.H: 325: id[3] = 0;
  3333  0006C8  EE20 F003          	lfsr	2,03h
  3334  0006CC  501C               	movf	((c:CANRecv@id)),c,w
  3335  0006CE  26D9               	addwf	fsr2l
  3336  0006D0  501D               	movf	((c:CANRecv@id+1)),c,w
  3337  0006D2  22DA               	addwfc	fsr2h
  3338  0006D4  0E00               	movlw	low(0)
  3339  0006D6  6EDF               	movwf	indf2
  3340                           	line	327
  3341                           	
  3342  0006D8                     l3747:
  3343                           ;CAN.H: 327: *dlc =0;
  3344  0006D8  C020  FFD9         	movff	(c:CANRecv@dlc),fsr2l
  3345  0006DC  C021  FFDA         	movff	(c:CANRecv@dlc+1),fsr2h
  3346  0006E0  0E00               	movlw	low(0)
  3347  0006E2  6EDF               	movwf	indf2
  3348                           	line	329
  3349                           	
  3350  0006E4                     l3749:
  3351                           ;CAN.H: 329: dat[0] = 0;
  3352  0006E4  C01E  FFD9         	movff	(c:CANRecv@dat),fsr2l
  3353  0006E8  C01F  FFDA         	movff	(c:CANRecv@dat+1),fsr2h
  3354  0006EC  0E00               	movlw	low(0)
  3355  0006EE  6EDF               	movwf	indf2
  3356                           	line	330
  3357                           	
  3358  0006F0                     l3751:
  3359                           ;CAN.H: 330: dat[1] = 0;
  3360  0006F0  EE20 F001          	lfsr	2,01h
  3361  0006F4  501E               	movf	((c:CANRecv@dat)),c,w
  3362  0006F6  26D9               	addwf	fsr2l
  3363  0006F8  501F               	movf	((c:CANRecv@dat+1)),c,w
  3364  0006FA  22DA               	addwfc	fsr2h
  3365  0006FC  0E00               	movlw	low(0)
  3366  0006FE  6EDF               	movwf	indf2
  3367                           	line	331
  3368                           	
  3369  000700                     l3753:
  3370                           ;CAN.H: 331: dat[2] = 0;
  3371  000700  EE20 F002          	lfsr	2,02h
  3372  000704  501E               	movf	((c:CANRecv@dat)),c,w
  3373  000706  26D9               	addwf	fsr2l
  3374  000708  501F               	movf	((c:CANRecv@dat+1)),c,w
  3375  00070A  22DA               	addwfc	fsr2h
  3376  00070C  0E00               	movlw	low(0)
  3377  00070E  6EDF               	movwf	indf2
  3378                           	line	332
  3379                           	
  3380  000710                     l3755:
  3381                           ;CAN.H: 332: dat[3] = 0;
  3382  000710  EE20 F003          	lfsr	2,03h
  3383  000714  501E               	movf	((c:CANRecv@dat)),c,w
  3384  000716  26D9               	addwf	fsr2l
  3385  000718  501F               	movf	((c:CANRecv@dat+1)),c,w
  3386  00071A  22DA               	addwfc	fsr2h
  3387  00071C  0E00               	movlw	low(0)
  3388  00071E  6EDF               	movwf	indf2
  3389                           	line	333
  3390                           	
  3391  000720                     l3757:
  3392                           ;CAN.H: 333: dat[4] = 0;
  3393  000720  EE20 F004          	lfsr	2,04h
  3394  000724  501E               	movf	((c:CANRecv@dat)),c,w
  3395  000726  26D9               	addwf	fsr2l
  3396  000728  501F               	movf	((c:CANRecv@dat+1)),c,w
  3397  00072A  22DA               	addwfc	fsr2h
  3398  00072C  0E00               	movlw	low(0)
  3399  00072E  6EDF               	movwf	indf2
  3400                           	line	334
  3401                           	
  3402  000730                     l3759:
  3403                           ;CAN.H: 334: dat[5] = 0;
  3404  000730  EE20 F005          	lfsr	2,05h
  3405  000734  501E               	movf	((c:CANRecv@dat)),c,w
  3406  000736  26D9               	addwf	fsr2l
  3407  000738  501F               	movf	((c:CANRecv@dat+1)),c,w
  3408  00073A  22DA               	addwfc	fsr2h
  3409  00073C  0E00               	movlw	low(0)
  3410  00073E  6EDF               	movwf	indf2
  3411                           	line	335
  3412                           	
  3413  000740                     l3761:
  3414                           ;CAN.H: 335: dat[6] = 0;
  3415  000740  EE20 F006          	lfsr	2,06h
  3416  000744  501E               	movf	((c:CANRecv@dat)),c,w
  3417  000746  26D9               	addwf	fsr2l
  3418  000748  501F               	movf	((c:CANRecv@dat+1)),c,w
  3419  00074A  22DA               	addwfc	fsr2h
  3420  00074C  0E00               	movlw	low(0)
  3421  00074E  6EDF               	movwf	indf2
  3422                           	line	336
  3423                           	
  3424  000750                     l3763:
  3425                           ;CAN.H: 336: dat[7] = 0;
  3426  000750  EE20 F007          	lfsr	2,07h
  3427  000754  501E               	movf	((c:CANRecv@dat)),c,w
  3428  000756  26D9               	addwf	fsr2l
  3429  000758  501F               	movf	((c:CANRecv@dat+1)),c,w
  3430  00075A  22DA               	addwfc	fsr2h
  3431  00075C  0E00               	movlw	low(0)
  3432  00075E  6EDF               	movwf	indf2
  3433                           	line	338
  3434                           	
  3435  000760                     l3765:
  3436                           ;CAN.H: 338: CANInit(GetAddr(0x06));
  3437  000760  6E22               	movwf	(??_CANRecv+0+0)&0ffh,c
  3438  000762  0E06               	movlw	low(06h)
  3439  000764  6E17               	movwf	((c:?_GetAddr)),c
  3440  000766  5022               	movf	(??_CANRecv+0+0)&0ffh,c,w
  3441  000768  EC45  F00C         	call	_GetAddr	;wreg free
  3442  00076C  6E1A               	movwf	((c:?_CANInit)),c
  3443  00076E  ECED  F00A         	call	_CANInit	;wreg free
  3444                           	line	340
  3445                           	
  3446  000772                     l3767:
  3447                           ;CAN.H: 340: return 0;
  3448  000772  90D8               	bcf	status,0
  3449  000774  D003               	goto	l361
  3450                           	
  3451  000776                     l3769:
  3452  000776  D002               	goto	l361
  3453                           	line	341
  3454                           	
  3455  000778                     l366:
  3456                           	line	342
  3457                           	
  3458  000778                     l3771:
  3459                           ;CAN.H: 341: }
  3460                           ;CAN.H: 342: return 0;
  3461  000778  90D8               	bcf	status,0
  3462  00077A  D000               	goto	l361
  3463                           	
  3464  00077C                     l3773:
  3465                           	line	343
  3466                           	
  3467  00077C                     l361:
  3468  00077C  0012               	return
  3469                           	opt stack 0
  3470                           GLOBAL	__end_of_CANRecv
  3471  00077E                     	__end_of_CANRecv:
  3472                           	signat	_CANRecv,12408
  3473                           	global	_GetAddr
  3474                           
  3475 ;; *************** function _GetAddr *****************
  3476 ;; Defined at:
  3477 ;;		line 143 in file "E:\WorkSpace\YellowFlashingController20140317\TSC.H"
  3478 ;; Parameters:    Size  Location     Type
  3479 ;;  board_type      1   22[COMRAM] unsigned char 
  3480 ;; Auto vars:     Size  Location     Type
  3481 ;;  rel             1   24[COMRAM] unsigned char 
  3482 ;; Return value:  Size  Location     Type
  3483 ;;                  1    wreg      unsigned char 
  3484 ;; Registers used:
  3485 ;;		wreg, status,2, status,0, cstack
  3486 ;; Tracked objects:
  3487 ;;		On entry : 0/0
  3488 ;;		On exit  : 0/0
  3489 ;;		Unchanged: 0/0
  3490 ;; Data sizes:     COMRAM   BANK0   BANK1   BANK2   BANK3   BANK4   BANK5   BANK6   BANK7   BANK8   BANK9  BANK10  BANK1
       1  BANK12  BANK13  BANK14
  3491 ;;      Params:         1       0       0       0       0       0       0       0       0       0       0       0       
       0       0       0       0
  3492 ;;      Locals:         1       0       0       0       0       0       0       0       0       0       0       0       
       0       0       0       0
  3493 ;;      Temps:          1       0       0       0       0       0       0       0       0       0       0       0       
       0       0       0       0
  3494 ;;      Totals:         3       0       0       0       0       0       0       0       0       0       0       0       
       0       0       0       0
  3495 ;;Total ram usage:        3 bytes
  3496 ;; Hardware stack levels used:    1
  3497 ;; Hardware stack levels required when called:    5
  3498 ;; This function calls:
  3499 ;;		_GetLampBoardAddr
  3500 ;; This function is called by:
  3501 ;;		_CANRecv
  3502 ;;		_main
  3503 ;; This function uses a non-reentrant model
  3504 ;;
  3505                           psect	text2,class=CODE,space=0,reloc=2
  3506                           global __ptext2
  3507  00188A                     __ptext2:
  3508                           psect	text2
  3509                           	file	"E:\WorkSpace\YellowFlashingController20140317\TSC.H"
  3510                           	line	143
  3511                           	global	__size_of_GetAddr
  3512  0000                     	__size_of_GetAddr	equ	__end_of_GetAddr-_GetAddr
  3513                           	
  3514  00188A                     _GetAddr:
  3515                           	opt	stack 24
  3516                           	line	145
  3517                           	
  3518  00188A                     l3483:
  3519                           ;TSC.H: 144: unsigned char rel;
  3520                           ;TSC.H: 145: switch (board_type)
  3521  00188A  D017               	goto	l3495
  3522                           	line	147
  3523                           ;TSC.H: 146: {
  3524                           ;TSC.H: 147: case 0x01:
  3525                           	
  3526  00188C                     l316:
  3527                           	line	148
  3528                           	
  3529  00188C                     l3485:
  3530                           ;TSC.H: 148: rel = 0x20;
  3531  00188C  6E18               	movwf	(??_GetAddr+0+0)&0ffh,c
  3532  00188E  0E20               	movlw	low(020h)
  3533  001890  6E19               	movwf	((c:GetAddr@rel)),c
  3534  001892  5018               	movf	(??_GetAddr+0+0)&0ffh,c,w
  3535                           	line	149
  3536                           ;TSC.H: 149: break;
  3537  001894  D026               	goto	l3497
  3538                           	line	150
  3539                           ;TSC.H: 150: case 0x02:
  3540                           	
  3541  001896                     l318:
  3542                           	line	152
  3543                           	
  3544  001896                     l3487:
  3545                           ;TSC.H: 152: rel = GetLampBoardAddr();
  3546  001896  EC2D  F009         	call	_GetLampBoardAddr	;wreg free
  3547  00189A  6E19               	movwf	((c:GetAddr@rel)),c
  3548                           	line	153
  3549                           ;TSC.H: 153: break;
  3550  00189C  D022               	goto	l3497
  3551                           	line	154
  3552                           ;TSC.H: 154: case 0x06:
  3553                           	
  3554  00189E                     l319:
  3555                           	line	155
  3556                           	
  3557  00189E                     l3489:
  3558                           ;TSC.H: 155: rel= 0x2E;
  3559  00189E  6E18               	movwf	(??_GetAddr+0+0)&0ffh,c
  3560  0018A0  0E2E               	movlw	low(02Eh)
  3561  0018A2  6E19               	movwf	((c:GetAddr@rel)),c
  3562  0018A4  5018               	movf	(??_GetAddr+0+0)&0ffh,c,w
  3563  0018A6  D01D               	goto	l3497
  3564                           	line	156
  3565                           ;TSC.H: 156: case 0x03:
  3566                           	
  3567  0018A8                     l320:
  3568                           	line	158
  3569                           ;TSC.H: 158: break;
  3570  0018A8  D01C               	goto	l3497
  3571                           	line	159
  3572                           ;TSC.H: 159: case 0x04:
  3573                           	
  3574  0018AA                     l321:
  3575                           	line	161
  3576                           ;TSC.H: 161: break;
  3577  0018AA  D01B               	goto	l3497
  3578                           	line	162
  3579                           ;TSC.H: 162: case 0x05:
  3580                           	
  3581  0018AC                     l322:
  3582                           	line	164
  3583                           ;TSC.H: 164: break;
  3584  0018AC  D01A               	goto	l3497
  3585                           	line	165
  3586                           ;TSC.H: 165: default:
  3587                           	
  3588  0018AE                     l323:
  3589                           	line	166
  3590                           	
  3591  0018AE                     l3491:
  3592                           ;TSC.H: 166: rel = 0;
  3593  0018AE  6E18               	movwf	(??_GetAddr+0+0)&0ffh,c
  3594  0018B0  0E00               	movlw	low(0)
  3595  0018B2  6E19               	movwf	((c:GetAddr@rel)),c
  3596  0018B4  5018               	movf	(??_GetAddr+0+0)&0ffh,c,w
  3597                           	line	167
  3598                           ;TSC.H: 167: break;
  3599  0018B6  D015               	goto	l3497
  3600                           	line	169
  3601                           	
  3602  0018B8                     l3493:
  3603                           ;TSC.H: 169: }
  3604  0018B8  D014               	goto	l3497
  3605                           	line	145
  3606                           	
  3607  0018BA                     l315:
  3608                           	
  3609  0018BA                     l3495:
  3610  0018BA  5017               	movf	((c:GetAddr@board_type)),c,w
  3611                           	; Switch size 1, requested type "space"
  3612                           ; Number of cases is 6, Range of values is 1 to 6
  3613                           ; switch strategies available:
  3614                           ; Name         Instructions Cycles
  3615                           ; simple_byte           19    10 (average)
  3616                           ;	Chosen strategy is simple_byte
  3617                           
  3618  0018BC  0A01               	xorlw	1^0	; case 1
  3619  0018BE  B4D8               	skipnz
  3620  0018C0  D7E5               	goto	l3485
  3621  0018C2  0A03               	xorlw	2^1	; case 2
  3622  0018C4  B4D8               	skipnz
  3623  0018C6  D7E7               	goto	l3487
  3624  0018C8  0A01               	xorlw	3^2	; case 3
  3625  0018CA  B4D8               	skipnz
  3626  0018CC  D00A               	goto	l3497
  3627  0018CE  0A07               	xorlw	4^3	; case 4
  3628  0018D0  B4D8               	skipnz
  3629  0018D2  D007               	goto	l3497
  3630  0018D4  0A01               	xorlw	5^4	; case 5
  3631  0018D6  B4D8               	skipnz
  3632  0018D8  D004               	goto	l3497
  3633  0018DA  0A03               	xorlw	6^5	; case 6
  3634  0018DC  B4D8               	skipnz
  3635  0018DE  D7DF               	goto	l3489
  3636  0018E0  D7E6               	goto	l3491
  3637                           
  3638                           	line	169
  3639                           	
  3640  0018E2                     l317:
  3641                           	line	170
  3642                           	
  3643  0018E2                     l3497:
  3644                           ;TSC.H: 170: return rel;
  3645  0018E2  5019               	movf	((c:GetAddr@rel)),c,w
  3646  0018E4  D000               	goto	l324
  3647                           	
  3648  0018E6                     l3499:
  3649                           	line	171
  3650                           	
  3651  0018E6                     l324:
  3652  0018E6  0012               	return
  3653                           	opt stack 0
  3654                           GLOBAL	__end_of_GetAddr
  3655  0018E8                     	__end_of_GetAddr:
  3656                           	signat	_GetAddr,4217
  3657                           	global	_GetLampBoardAddr
  3658                           
  3659 ;; *************** function _GetLampBoardAddr *****************
  3660 ;; Defined at:
  3661 ;;		line 82 in file "E:\WorkSpace\YellowFlashingController20140317\TSC.H"
  3662 ;; Parameters:    Size  Location     Type
  3663 ;;		None
  3664 ;; Auto vars:     Size  Location     Type
  3665 ;;  i               2   19[COMRAM] unsigned int 
  3666 ;;  addr            1   21[COMRAM] unsigned char 
  3667 ;; Return value:  Size  Location     Type
  3668 ;;                  1    wreg      unsigned char 
  3669 ;; Registers used:
  3670 ;;		wreg, status,2, status,0
  3671 ;; Tracked objects:
  3672 ;;		On entry : 0/0
  3673 ;;		On exit  : 0/0
  3674 ;;		Unchanged: 0/0
  3675 ;; Data sizes:     COMRAM   BANK0   BANK1   BANK2   BANK3   BANK4   BANK5   BANK6   BANK7   BANK8   BANK9  BANK10  BANK1
       1  BANK12  BANK13  BANK14
  3676 ;;      Params:         0       0       0       0       0       0       0       0       0       0       0       0       
       0       0       0       0
  3677 ;;      Locals:         3       0       0       0       0       0       0       0       0       0       0       0       
       0       0       0       0
  3678 ;;      Temps:          1       0       0       0       0       0       0       0       0       0       0       0       
       0       0       0       0
  3679 ;;      Totals:         4       0       0       0       0       0       0       0       0       0       0       0       
       0       0       0       0
  3680 ;;Total ram usage:        4 bytes
  3681 ;; Hardware stack levels used:    1
  3682 ;; Hardware stack levels required when called:    4
  3683 ;; This function calls:
  3684 ;;		Nothing
  3685 ;; This function is called by:
  3686 ;;		_GetAddr
  3687 ;; This function uses a non-reentrant model
  3688 ;;
  3689                           psect	text3,class=CODE,space=0,reloc=2
  3690                           global __ptext3
  3691  00125A                     __ptext3:
  3692                           psect	text3
  3693                           	file	"E:\WorkSpace\YellowFlashingController20140317\TSC.H"
  3694                           	line	82
  3695                           	global	__size_of_GetLampBoardAddr
  3696  0000                     	__size_of_GetLampBoardAddr	equ	__end_of_GetLampBoardAddr-_GetLampBoardAddr
  3697                           	
  3698  00125A                     _GetLampBoardAddr:
  3699                           	opt	stack 24
  3700                           	line	83
  3701                           	
  3702  00125A                     l3407:
  3703                           ;TSC.H: 83: unsigned char addr = 0x00;
  3704  00125A  6E13               	movwf	(??_GetLampBoardAddr+0+0)&0ffh,c
  3705  00125C  0E00               	movlw	low(0)
  3706  00125E  6E16               	movwf	((c:GetLampBoardAddr@addr)),c
  3707  001260  5013               	movf	(??_GetLampBoardAddr+0+0)&0ffh,c,w
  3708                           	line	84
  3709                           	
  3710  001262                     l3409:
  3711                           ;TSC.H: 84: unsigned int i=0;
  3712  001262  0E00               	movlw	high(0)
  3713  001264  6E15               	movwf	((c:GetLampBoardAddr@i+1)),c
  3714  001266  0E00               	movlw	low(0)
  3715  001268  6E14               	movwf	((c:GetLampBoardAddr@i)),c
  3716                           	line	86
  3717                           	
  3718  00126A                     l3411:
  3719                           ;TSC.H: 86: addr = (PORTB>>5) & 0x07;
  3720  00126A  3881               	swapf	((c:3969)),c,w	;volatile
  3721  00126C  42E8               	rrncf	wreg
  3722  00126E  0B07               	andlw	(0ffh shr 5) & 0ffh
  3723  001270  0B07               	andlw	low(07h)
  3724  001272  6E16               	movwf	((c:GetLampBoardAddr@addr)),c
  3725                           	line	89
  3726                           	
  3727  001274                     l3413:
  3728                           ;TSC.H: 89: for(i=0;i<1000;i++)
  3729  001274  0E00               	movlw	high(0)
  3730  001276  6E15               	movwf	((c:GetLampBoardAddr@i+1)),c
  3731  001278  0E00               	movlw	low(0)
  3732  00127A  6E14               	movwf	((c:GetLampBoardAddr@i)),c
  3733                           	
  3734  00127C                     l3415:
  3735  00127C  0EE8               	movlw	0E8h
  3736  00127E  5C14               	subwf	((c:GetLampBoardAddr@i)),c,w
  3737  001280  0E03               	movlw	03h
  3738  001282  5815               	subwfb	((c:GetLampBoardAddr@i+1)),c,w
  3739  001284  A0D8               	btfss	status,0
  3740  001286  D001               	goto	u2451
  3741  001288  D001               	goto	u2450
  3742  00128A                     u2451:
  3743  00128A  D002               	goto	l3419
  3744  00128C                     u2450:
  3745  00128C  D00C               	goto	l3423
  3746                           	
  3747  00128E                     l3417:
  3748  00128E  D00B               	goto	l3423
  3749                           	line	90
  3750                           	
  3751  001290                     l297:
  3752                           	line	89
  3753                           	
  3754  001290                     l3419:
  3755                           ;TSC.H: 90: {;}
  3756  001290  4A14               	infsnz	((c:GetLampBoardAddr@i)),c
  3757  001292  2A15               	incf	((c:GetLampBoardAddr@i+1)),c
  3758                           	
  3759  001294                     l3421:
  3760  001294  0EE8               	movlw	0E8h
  3761  001296  5C14               	subwf	((c:GetLampBoardAddr@i)),c,w
  3762  001298  0E03               	movlw	03h
  3763  00129A  5815               	subwfb	((c:GetLampBoardAddr@i+1)),c,w
  3764  00129C  A0D8               	btfss	status,0
  3765  00129E  D001               	goto	u2461
  3766  0012A0  D001               	goto	u2460
  3767  0012A2                     u2461:
  3768  0012A2  D7F6               	goto	l3419
  3769  0012A4                     u2460:
  3770  0012A4  D000               	goto	l3423
  3771                           	
  3772  0012A6                     l298:
  3773                           	line	92
  3774                           	
  3775  0012A6                     l3423:
  3776                           ;TSC.H: 92: if(addr ==((PORTB>>5) & 0x07))
  3777  0012A6  3881               	swapf	((c:3969)),c,w	;volatile
  3778  0012A8  42E8               	rrncf	wreg
  3779  0012AA  0B07               	andlw	(0ffh shr 5) & 0ffh
  3780  0012AC  0B07               	andlw	low(07h)
  3781  0012AE  1816               	xorwf	((c:GetLampBoardAddr@addr)),c,w
  3782  0012B0  A4D8               	btfss	status,2
  3783  0012B2  D001               	goto	u2471
  3784  0012B4  D001               	goto	u2470
  3785  0012B6                     u2471:
  3786  0012B6  D03F               	goto	l3479
  3787  0012B8                     u2470:
  3788  0012B8  D023               	goto	l3477
  3789                           	line	94
  3790                           	
  3791  0012BA                     l3425:
  3792                           ;TSC.H: 93: {
  3793                           ;TSC.H: 94: switch(addr)
  3794  0012BA  D022               	goto	l3477
  3795                           	line	96
  3796                           ;TSC.H: 95: {
  3797                           ;TSC.H: 96: case 0:
  3798                           	
  3799  0012BC                     l301:
  3800                           	line	97
  3801                           	
  3802  0012BC                     l3427:
  3803                           ;TSC.H: 97: return 0x13;
  3804  0012BC  0E13               	movlw	(013h)&0ffh
  3805  0012BE  D03E               	goto	l302
  3806                           	
  3807  0012C0                     l3429:
  3808  0012C0  D03D               	goto	l302
  3809                           	line	98
  3810                           	
  3811  0012C2                     l3431:
  3812                           ;TSC.H: 98: break;
  3813  0012C2  D03C               	goto	l302
  3814                           	line	99
  3815                           ;TSC.H: 99: case 1:
  3816                           	
  3817  0012C4                     l304:
  3818                           	line	100
  3819                           	
  3820  0012C4                     l3433:
  3821                           ;TSC.H: 100: return 0x14;
  3822  0012C4  0E14               	movlw	(014h)&0ffh
  3823  0012C6  D03A               	goto	l302
  3824                           	
  3825  0012C8                     l3435:
  3826  0012C8  D039               	goto	l302
  3827                           	line	101
  3828                           	
  3829  0012CA                     l3437:
  3830                           ;TSC.H: 101: break;
  3831  0012CA  D038               	goto	l302
  3832                           	line	102
  3833                           ;TSC.H: 102: case 2:
  3834                           	
  3835  0012CC                     l305:
  3836                           	line	103
  3837                           	
  3838  0012CC                     l3439:
  3839                           ;TSC.H: 103: return 0x15;
  3840  0012CC  0E15               	movlw	(015h)&0ffh
  3841  0012CE  D036               	goto	l302
  3842                           	
  3843  0012D0                     l3441:
  3844  0012D0  D035               	goto	l302
  3845                           	line	104
  3846                           	
  3847  0012D2                     l3443:
  3848                           ;TSC.H: 104: break;
  3849  0012D2  D034               	goto	l302
  3850                           	line	105
  3851                           ;TSC.H: 105: case 3:
  3852                           	
  3853  0012D4                     l306:
  3854                           	line	106
  3855                           	
  3856  0012D4                     l3445:
  3857                           ;TSC.H: 106: return 0x16;
  3858  0012D4  0E16               	movlw	(016h)&0ffh
  3859  0012D6  D032               	goto	l302
  3860                           	
  3861  0012D8                     l3447:
  3862  0012D8  D031               	goto	l302
  3863                           	line	107
  3864                           	
  3865  0012DA                     l3449:
  3866                           ;TSC.H: 107: break;
  3867  0012DA  D030               	goto	l302
  3868                           	line	108
  3869                           ;TSC.H: 108: case 4:
  3870                           	
  3871  0012DC                     l307:
  3872                           	line	109
  3873                           	
  3874  0012DC                     l3451:
  3875                           ;TSC.H: 109: return 0x17;
  3876  0012DC  0E17               	movlw	(017h)&0ffh
  3877  0012DE  D02E               	goto	l302
  3878                           	
  3879  0012E0                     l3453:
  3880  0012E0  D02D               	goto	l302
  3881                           	line	110
  3882                           	
  3883  0012E2                     l3455:
  3884                           ;TSC.H: 110: break;
  3885  0012E2  D02C               	goto	l302
  3886                           	line	111
  3887                           ;TSC.H: 111: case 5:
  3888                           	
  3889  0012E4                     l308:
  3890                           	line	112
  3891                           	
  3892  0012E4                     l3457:
  3893                           ;TSC.H: 112: return 0x18;
  3894  0012E4  0E18               	movlw	(018h)&0ffh
  3895  0012E6  D02A               	goto	l302
  3896                           	
  3897  0012E8                     l3459:
  3898  0012E8  D029               	goto	l302
  3899                           	line	113
  3900                           	
  3901  0012EA                     l3461:
  3902                           ;TSC.H: 113: break;
  3903  0012EA  D028               	goto	l302
  3904                           	line	114
  3905                           ;TSC.H: 114: case 6:
  3906                           	
  3907  0012EC                     l309:
  3908                           	line	115
  3909                           	
  3910  0012EC                     l3463:
  3911                           ;TSC.H: 115: return 0x1a;
  3912  0012EC  0E1A               	movlw	(01Ah)&0ffh
  3913  0012EE  D026               	goto	l302
  3914                           	
  3915  0012F0                     l3465:
  3916  0012F0  D025               	goto	l302
  3917                           	line	116
  3918                           	
  3919  0012F2                     l3467:
  3920                           ;TSC.H: 116: break;
  3921  0012F2  D024               	goto	l302
  3922                           	line	117
  3923                           ;TSC.H: 117: case 7:
  3924                           	
  3925  0012F4                     l310:
  3926                           	line	118
  3927                           	
  3928  0012F4                     l3469:
  3929                           ;TSC.H: 118: return 0x1b;
  3930  0012F4  0E1B               	movlw	(01Bh)&0ffh
  3931  0012F6  D022               	goto	l302
  3932                           	
  3933  0012F8                     l3471:
  3934  0012F8  D021               	goto	l302
  3935                           	line	119
  3936                           	
  3937  0012FA                     l3473:
  3938                           ;TSC.H: 119: break;
  3939  0012FA  D020               	goto	l302
  3940                           	line	120
  3941                           ;TSC.H: 120: default:
  3942                           	
  3943  0012FC                     l311:
  3944                           	line	121
  3945                           ;TSC.H: 121: break;
  3946  0012FC  D01F               	goto	l302
  3947                           	line	123
  3948                           	
  3949  0012FE                     l3475:
  3950                           ;TSC.H: 123: }
  3951  0012FE  D01E               	goto	l302
  3952                           	line	94
  3953                           	
  3954  001300                     l300:
  3955                           	
  3956  001300                     l3477:
  3957  001300  5016               	movf	((c:GetLampBoardAddr@addr)),c,w
  3958                           	; Switch size 1, requested type "space"
  3959                           ; Number of cases is 8, Range of values is 0 to 7
  3960                           ; switch strategies available:
  3961                           ; Name         Instructions Cycles
  3962                           ; simple_byte           25    13 (average)
  3963                           ;	Chosen strategy is simple_byte
  3964                           
  3965  001302  0A00               	xorlw	0^0	; case 0
  3966  001304  B4D8               	skipnz
  3967  001306  D7DA               	goto	l3427
  3968  001308  0A01               	xorlw	1^0	; case 1
  3969  00130A  B4D8               	skipnz
  3970  00130C  D7DB               	goto	l3433
  3971  00130E  0A03               	xorlw	2^1	; case 2
  3972  001310  B4D8               	skipnz
  3973  001312  D7DC               	goto	l3439
  3974  001314  0A01               	xorlw	3^2	; case 3
  3975  001316  B4D8               	skipnz
  3976  001318  D7DD               	goto	l3445
  3977  00131A  0A07               	xorlw	4^3	; case 4
  3978  00131C  B4D8               	skipnz
  3979  00131E  D7DE               	goto	l3451
  3980  001320  0A01               	xorlw	5^4	; case 5
  3981  001322  B4D8               	skipnz
  3982  001324  D7DF               	goto	l3457
  3983  001326  0A03               	xorlw	6^5	; case 6
  3984  001328  B4D8               	skipnz
  3985  00132A  D7E0               	goto	l3463
  3986  00132C  0A01               	xorlw	7^6	; case 7
  3987  00132E  B4D8               	skipnz
  3988  001330  D7E1               	goto	l3469
  3989  001332  D004               	goto	l302
  3990                           
  3991                           	line	123
  3992                           	
  3993  001334                     l303:
  3994                           	line	124
  3995                           ;TSC.H: 124: }
  3996  001334  D003               	goto	l302
  3997                           	line	125
  3998                           	
  3999  001336                     l299:
  4000                           	line	127
  4001                           	
  4002  001336                     l3479:
  4003                           ;TSC.H: 125: else
  4004                           ;TSC.H: 126: {
  4005                           ;TSC.H: 127: return 0xff;
  4006  001336  0EFF               	movlw	(0FFh)&0ffh
  4007  001338  D001               	goto	l302
  4008                           	
  4009  00133A                     l3481:
  4010  00133A  D000               	goto	l302
  4011                           	line	128
  4012                           	
  4013  00133C                     l312:
  4014                           	line	130
  4015                           	
  4016  00133C                     l302:
  4017  00133C  0012               	return
  4018                           	opt stack 0
  4019                           GLOBAL	__end_of_GetLampBoardAddr
  4020  00133E                     	__end_of_GetLampBoardAddr:
  4021                           	signat	_GetLampBoardAddr,89
  4022                           	global	_CANInit
  4023                           
  4024 ;; *************** function _CANInit *****************
  4025 ;; Defined at:
  4026 ;;		line 117 in file "E:\WorkSpace\YellowFlashingController20140317\CAN.H"
  4027 ;; Parameters:    Size  Location     Type
  4028 ;;  b_addr          1   25[COMRAM] unsigned char 
  4029 ;; Auto vars:     Size  Location     Type
  4030 ;;		None
  4031 ;; Return value:  Size  Location     Type
  4032 ;;		None               void
  4033 ;; Registers used:
  4034 ;;		wreg, status,2, status,0, cstack
  4035 ;; Tracked objects:
  4036 ;;		On entry : 0/0
  4037 ;;		On exit  : 0/0
  4038 ;;		Unchanged: 0/0
  4039 ;; Data sizes:     COMRAM   BANK0   BANK1   BANK2   BANK3   BANK4   BANK5   BANK6   BANK7   BANK8   BANK9  BANK10  BANK1
       1  BANK12  BANK13  BANK14
  4040 ;;      Params:         1       0       0       0       0       0       0       0       0       0       0       0       
       0       0       0       0
  4041 ;;      Locals:         0       0       0       0       0       0       0       0       0       0       0       0       
       0       0       0       0
  4042 ;;      Temps:          1       0       0       0       0       0       0       0       0       0       0       0       
       0       0       0       0
  4043 ;;      Totals:         2       0       0       0       0       0       0       0       0       0       0       0       
       0       0       0       0
  4044 ;;Total ram usage:        2 bytes
  4045 ;; Hardware stack levels used:    1
  4046 ;; Hardware stack levels required when called:    5
  4047 ;; This function calls:
  4048 ;;		_CANSetID
  4049 ;;		_CANFilterSet
  4050 ;;		_CANErrClr
  4051 ;; This function is called by:
  4052 ;;		_CANRecv
  4053 ;;		_main
  4054 ;; This function uses a non-reentrant model
  4055 ;;
  4056                           psect	text4,class=CODE,space=0,reloc=2
  4057                           global __ptext4
  4058  0015DA                     __ptext4:
  4059                           psect	text4
  4060                           	file	"E:\WorkSpace\YellowFlashingController20140317\CAN.H"
  4061                           	line	117
  4062                           	global	__size_of_CANInit
  4063  0000                     	__size_of_CANInit	equ	__end_of_CANInit-_CANInit
  4064                           	
  4065  0015DA                     _CANInit:
  4066                           	opt	stack 24
  4067                           	line	118
  4068                           	
  4069  0015DA                     l3577:
  4070                           ;CAN.H: 118: TRISB |= 0x08;
  4071  0015DA  8693               	bsf	(0+(3/8)+(c:3987)),c,(3)&7	;volatile
  4072                           	line	119
  4073                           ;CAN.H: 119: TRISB &= 0xfb;
  4074  0015DC  9493               	bcf	(0+(2/8)+(c:3987)),c,(2)&7	;volatile
  4075                           	line	121
  4076                           ;CAN.H: 121: CANCON |=0x80;
  4077  0015DE  8E6F               	bsf	(0+(7/8)+(c:3951)),c,(7)&7	;volatile
  4078                           	line	123
  4079                           ;CAN.H: 123: while(!(CANSTAT & 0x80));
  4080  0015E0  D000               	goto	l336
  4081                           	
  4082  0015E2                     l337:
  4083                           	
  4084  0015E2                     l336:
  4085                           	
  4086  0015E2  AE6E               	btfss	((c:3950)),c,(7)&7	;volatile
  4087  0015E4  D001               	goto	u2481
  4088  0015E6  D001               	goto	u2480
  4089  0015E8                     u2481:
  4090  0015E8  D7FC               	goto	l336
  4091  0015EA                     u2480:
  4092  0015EA  D000               	goto	l3579
  4093                           	
  4094  0015EC                     l338:
  4095                           	line	126
  4096                           	
  4097  0015EC                     l3579:
  4098                           ;CAN.H: 126: ECANCON &= 0x3f;
  4099  0015EC  0E3F               	movlw	(03Fh)&0ffh
  4100  0015EE  1672               	andwf	((c:3954)),c	;volatile
  4101                           	line	128
  4102                           	
  4103  0015F0                     l3581:
  4104                           ;CAN.H: 128: BRGCON1 = 0x00;
  4105  0015F0  0E00               	movlw	low(0)
  4106  0015F2  010E               	movlb	14	; () banked
  4107  0015F4  010E               	movlb	14	; () banked
  4108  0015F6  6F43               	movwf	((3651))&0ffh	;volatile
  4109                           	line	129
  4110                           	
  4111  0015F8                     l3583:
  4112                           ;CAN.H: 129: BRGCON2 = 0xd1;;
  4113  0015F8  0ED1               	movlw	low(0D1h)
  4114  0015FA  010E               	movlb	14	; () banked
  4115  0015FC  010E               	movlb	14	; () banked
  4116  0015FE  6F44               	movwf	((3652))&0ffh	;volatile
  4117                           	line	130
  4118                           	
  4119  001600                     l3585:
  4120                           ;CAN.H: 130: BRGCON3 = 0xc1;
  4121  001600  0EC1               	movlw	low(0C1h)
  4122  001602  010E               	movlb	14	; () banked
  4123  001604  010E               	movlb	14	; () banked
  4124  001606  6F45               	movwf	((3653))&0ffh	;volatile
  4125                           	line	131
  4126                           	
  4127  001608                     l3587:
  4128                           ;CAN.H: 131: CIOCON = 0x21;
  4129  001608  0E21               	movlw	low(021h)
  4130  00160A  6E70               	movwf	((c:3952)),c	;volatile
  4131                           	line	133
  4132                           ;CAN.H: 133: RXB0CON |= 0x06;
  4133  00160C  0E06               	movlw	(06h)&0ffh
  4134  00160E  1260               	iorwf	((c:3936)),c	;volatile
  4135                           	line	134
  4136                           ;CAN.H: 134: RXB1CON |= 0x06;
  4137  001610  0E06               	movlw	(06h)&0ffh
  4138  001612  010F               	movlb	15	; () banked
  4139  001614  010F               	movlb	15	; () banked
  4140  001616  1330               	iorwf	((3888))&0ffh	;volatile
  4141                           	line	136
  4142                           	
  4143  001618                     l3589:
  4144                           ;CAN.H: 136: CANSetID(b_addr,0x03);
  4145  001618  C01A  F013         	movff	(c:CANInit@b_addr),(c:?_CANSetID)
  4146  00161C  6E1B               	movwf	(??_CANInit+0+0)&0ffh,c
  4147  00161E  0E03               	movlw	low(03h)
  4148  001620  6E14               	movwf	(0+((c:?_CANSetID)+01h)),c
  4149  001622  501B               	movf	(??_CANInit+0+0)&0ffh,c,w
  4150  001624  EC9E  F00B         	call	_CANSetID	;wreg free
  4151                           	line	137
  4152                           	
  4153  001628                     l3591:
  4154                           ;CAN.H: 137: CANFilterSet(b_addr,0x03);
  4155  001628  C01A  F013         	movff	(c:CANInit@b_addr),(c:?_CANFilterSet)
  4156  00162C  6E1B               	movwf	(??_CANInit+0+0)&0ffh,c
  4157  00162E  0E03               	movlw	low(03h)
  4158  001630  6E14               	movwf	(0+((c:?_CANFilterSet)+01h)),c
  4159  001632  501B               	movf	(??_CANInit+0+0)&0ffh,c,w
  4160  001634  ECB7  F008         	call	_CANFilterSet	;wreg free
  4161                           	line	138
  4162                           	
  4163  001638                     l3593:
  4164                           ;CAN.H: 138: CANErrClr();
  4165  001638  ECD4  F00D         	call	_CANErrClr	;wreg free
  4166                           	line	141
  4167                           	
  4168  00163C                     l3595:
  4169                           ;CAN.H: 141: CIOCON=0X00;
  4170  00163C  0E00               	movlw	low(0)
  4171  00163E  6E70               	movwf	((c:3952)),c	;volatile
  4172                           	line	145
  4173                           	
  4174  001640                     l3597:
  4175                           ;CAN.H: 145: CANCON &= 0x1f;
  4176  001640  0E1F               	movlw	(01Fh)&0ffh
  4177  001642  166F               	andwf	((c:3951)),c	;volatile
  4178                           	line	146
  4179                           ;CAN.H: 146: while(CANSTAT&0XE0!=0){;}
  4180  001644  D000               	goto	l339
  4181                           	
  4182  001646                     l340:
  4183                           	
  4184  001646                     l339:
  4185                           	
  4186  001646  B06E               	btfsc	((c:3950)),c,(0)&7	;volatile
  4187  001648  D001               	goto	u2491
  4188  00164A  D001               	goto	u2490
  4189  00164C                     u2491:
  4190  00164C  D7FC               	goto	l339
  4191  00164E                     u2490:
  4192  00164E  D000               	goto	l342
  4193                           	
  4194  001650                     l341:
  4195                           	line	152
  4196                           	
  4197  001650                     l342:
  4198  001650  0012               	return
  4199                           	opt stack 0
  4200                           GLOBAL	__end_of_CANInit
  4201  001652                     	__end_of_CANInit:
  4202                           	signat	_CANInit,4216
  4203                           	global	_CANFilterSet
  4204                           
  4205 ;; *************** function _CANFilterSet *****************
  4206 ;; Defined at:
  4207 ;;		line 15 in file "E:\WorkSpace\YellowFlashingController20140317\CAN.H"
  4208 ;; Parameters:    Size  Location     Type
  4209 ;;  board_addr      1   18[COMRAM] unsigned char 
  4210 ;;  f_type          1   19[COMRAM] unsigned char 
  4211 ;; Auto vars:     Size  Location     Type
  4212 ;;		None
  4213 ;; Return value:  Size  Location     Type
  4214 ;;		None               void
  4215 ;; Registers used:
  4216 ;;		wreg, status,2, status,0
  4217 ;; Tracked objects:
  4218 ;;		On entry : 0/0
  4219 ;;		On exit  : 0/0
  4220 ;;		Unchanged: 0/0
  4221 ;; Data sizes:     COMRAM   BANK0   BANK1   BANK2   BANK3   BANK4   BANK5   BANK6   BANK7   BANK8   BANK9  BANK10  BANK1
       1  BANK12  BANK13  BANK14
  4222 ;;      Params:         2       0       0       0       0       0       0       0       0       0       0       0       
       0       0       0       0
  4223 ;;      Locals:         0       0       0       0       0       0       0       0       0       0       0       0       
       0       0       0       0
  4224 ;;      Temps:          0       0       0       0       0       0       0       0       0       0       0       0       
       0       0       0       0
  4225 ;;      Totals:         2       0       0       0       0       0       0       0       0       0       0       0       
       0       0       0       0
  4226 ;;Total ram usage:        2 bytes
  4227 ;; Hardware stack levels used:    1
  4228 ;; Hardware stack levels required when called:    4
  4229 ;; This function calls:
  4230 ;;		Nothing
  4231 ;; This function is called by:
  4232 ;;		_CANInit
  4233 ;; This function uses a non-reentrant model
  4234 ;;
  4235                           psect	text5,class=CODE,space=0,reloc=2
  4236                           global __ptext5
  4237  00116E                     __ptext5:
  4238                           psect	text5
  4239                           	file	"E:\WorkSpace\YellowFlashingController20140317\CAN.H"
  4240                           	line	15
  4241                           	global	__size_of_CANFilterSet
  4242  0000                     	__size_of_CANFilterSet	equ	__end_of_CANFilterSet-_CANFilterSet
  4243                           	
  4244  00116E                     _CANFilterSet:
  4245                           	opt	stack 24
  4246                           	line	20
  4247                           	
  4248  00116E                     l3501:
  4249                           ;CAN.H: 20: RXF0SIDH = 0;
  4250  00116E  0E00               	movlw	low(0)
  4251  001170  010E               	movlb	14	; () banked
  4252  001172  010E               	movlb	14	; () banked
  4253  001174  6FE0               	movwf	((3808))&0ffh	;volatile
  4254                           	line	21
  4255                           	
  4256  001176                     l3503:
  4257                           ;CAN.H: 21: RXF0SIDH = (f_type<<5)|(0x10>>1);
  4258  001176  3814               	swapf	((c:CANFilterSet@f_type)),c,w
  4259  001178  46E8               	rlncf	wreg
  4260  00117A  0BE0               	andlw	(0ffh shl 5) & 0ffh
  4261  00117C  0908               	iorlw	low(08h)
  4262  00117E  010E               	movlb	14	; () banked
  4263  001180  010E               	movlb	14	; () banked
  4264  001182  6FE0               	movwf	((3808))&0ffh	;volatile
  4265                           	line	22
  4266                           	
  4267  001184                     l3505:
  4268                           ;CAN.H: 22: RXF0SIDL = 0;
  4269  001184  0E00               	movlw	low(0)
  4270  001186  010E               	movlb	14	; () banked
  4271  001188  010E               	movlb	14	; () banked
  4272  00118A  6FE1               	movwf	((3809))&0ffh	;volatile
  4273                           	line	23
  4274                           ;CAN.H: 23: RXF0SIDL = (0x10<<7)|(0x00<<5)|0x08|(board_addr>>4);
  4275  00118C  3813               	swapf	((c:CANFilterSet@board_addr)),c,w
  4276  00118E  0B0F               	andlw	(0ffh shr 4) & 0ffh
  4277  001190  0908               	iorlw	low(08h)
  4278  001192  010E               	movlb	14	; () banked
  4279  001194  010E               	movlb	14	; () banked
  4280  001196  6FE1               	movwf	((3809))&0ffh	;volatile
  4281                           	line	24
  4282                           	
  4283  001198                     l3507:
  4284                           ;CAN.H: 24: RXF0EIDH = 0;
  4285  001198  0E00               	movlw	low(0)
  4286  00119A  010E               	movlb	14	; () banked
  4287  00119C  010E               	movlb	14	; () banked
  4288  00119E  6FE2               	movwf	((3810))&0ffh	;volatile
  4289                           	line	25
  4290                           	
  4291  0011A0                     l3509:
  4292                           ;CAN.H: 25: RXF0EIDH = (board_addr<<4)|0x0f;
  4293  0011A0  3813               	swapf	((c:CANFilterSet@board_addr)),c,w
  4294  0011A2  0BF0               	andlw	(0ffh shl 4) & 0ffh
  4295  0011A4  090F               	iorlw	low(0Fh)
  4296  0011A6  010E               	movlb	14	; () banked
  4297  0011A8  010E               	movlb	14	; () banked
  4298  0011AA  6FE2               	movwf	((3810))&0ffh	;volatile
  4299                           	line	26
  4300                           ;CAN.H: 26: RXF0EIDL = 0;
  4301  0011AC  0E00               	movlw	low(0)
  4302  0011AE  010E               	movlb	14	; () banked
  4303  0011B0  010E               	movlb	14	; () banked
  4304  0011B2  6FE3               	movwf	((3811))&0ffh	;volatile
  4305                           	line	27
  4306                           	
  4307  0011B4                     l3511:
  4308                           ;CAN.H: 27: RXF0EIDL = 0xF0|0x0f;
  4309  0011B4  010E               	movlb	14	; () banked
  4310  0011B6  010E               	movlb	14	; () banked
  4311  0011B8  69E3               	setf	((3811))&0ffh	;volatile
  4312                           	line	31
  4313                           	
  4314  0011BA                     l3513:
  4315                           ;CAN.H: 31: RXF1SIDH = RXF0SIDH;
  4316  0011BA  CEE0 FEE4          	movff	(3808),(3812)	;volatile
  4317                           	line	32
  4318                           	
  4319  0011BE                     l3515:
  4320                           ;CAN.H: 32: RXF1SIDL = RXF0SIDL;
  4321  0011BE  CEE1 FEE5          	movff	(3809),(3813)	;volatile
  4322                           	line	33
  4323                           	
  4324  0011C2                     l3517:
  4325                           ;CAN.H: 33: RXF1EIDH = RXF0EIDH;
  4326  0011C2  CEE2 FEE6          	movff	(3810),(3814)	;volatile
  4327                           	line	34
  4328                           	
  4329  0011C6                     l3519:
  4330                           ;CAN.H: 34: RXF1EIDL = RXF0EIDL;
  4331  0011C6  CEE3 FEE7          	movff	(3811),(3815)	;volatile
  4332                           	line	39
  4333                           	
  4334  0011CA                     l3521:
  4335                           ;CAN.H: 39: RXF2SIDH = RXF0SIDH;
  4336  0011CA  CEE0 FEE8          	movff	(3808),(3816)	;volatile
  4337                           	line	40
  4338                           	
  4339  0011CE                     l3523:
  4340                           ;CAN.H: 40: RXF2SIDL = RXF0SIDL;
  4341  0011CE  CEE1 FEE9          	movff	(3809),(3817)	;volatile
  4342                           	line	41
  4343                           	
  4344  0011D2                     l3525:
  4345                           ;CAN.H: 41: RXF2EIDH = RXF0EIDH;
  4346  0011D2  CEE2 FEEA          	movff	(3810),(3818)	;volatile
  4347                           	line	42
  4348                           	
  4349  0011D6                     l3527:
  4350                           ;CAN.H: 42: RXF2EIDL = RXF0EIDL;
  4351  0011D6  CEE3 FEEB          	movff	(3811),(3819)	;volatile
  4352                           	line	46
  4353                           	
  4354  0011DA                     l3529:
  4355                           ;CAN.H: 46: RXF3SIDH = RXF0SIDH;
  4356  0011DA  CEE0 FEEC          	movff	(3808),(3820)	;volatile
  4357                           	line	47
  4358                           	
  4359  0011DE                     l3531:
  4360                           ;CAN.H: 47: RXF3SIDL = RXF0SIDL;
  4361  0011DE  CEE1 FEED          	movff	(3809),(3821)	;volatile
  4362                           	line	48
  4363                           	
  4364  0011E2                     l3533:
  4365                           ;CAN.H: 48: RXF3EIDH = RXF0EIDH;
  4366  0011E2  CEE2 FEEE          	movff	(3810),(3822)	;volatile
  4367                           	line	49
  4368                           	
  4369  0011E6                     l3535:
  4370                           ;CAN.H: 49: RXF3EIDL = RXF0EIDL;
  4371  0011E6  CEE3 FEEF          	movff	(3811),(3823)	;volatile
  4372                           	line	53
  4373                           ;CAN.H: 53: RXF4SIDH = 0x68;
  4374  0011EA  0E68               	movlw	low(068h)
  4375  0011EC  010E               	movlb	14	; () banked
  4376  0011EE  010E               	movlb	14	; () banked
  4377  0011F0  6FF0               	movwf	((3824))&0ffh	;volatile
  4378                           	line	54
  4379                           ;CAN.H: 54: RXF4SIDL = 0x6a;
  4380  0011F2  0E6A               	movlw	low(06Ah)
  4381  0011F4  010E               	movlb	14	; () banked
  4382  0011F6  010E               	movlb	14	; () banked
  4383  0011F8  6FF1               	movwf	((3825))&0ffh	;volatile
  4384                           	line	55
  4385                           ;CAN.H: 55: RXF4EIDH = 0x0f;
  4386  0011FA  0E0F               	movlw	low(0Fh)
  4387  0011FC  010E               	movlb	14	; () banked
  4388  0011FE  010E               	movlb	14	; () banked
  4389  001200  6FF2               	movwf	((3826))&0ffh	;volatile
  4390                           	line	56
  4391                           	
  4392  001202                     l3537:
  4393                           ;CAN.H: 56: RXF4EIDL = 0xff;
  4394  001202  010E               	movlb	14	; () banked
  4395  001204  010E               	movlb	14	; () banked
  4396  001206  69F3               	setf	((3827))&0ffh	;volatile
  4397                           	line	59
  4398                           	
  4399  001208                     l3539:
  4400                           ;CAN.H: 59: RXF5SIDH = RXF0SIDH;
  4401  001208  CEE0 FEF4          	movff	(3808),(3828)	;volatile
  4402                           	line	60
  4403                           	
  4404  00120C                     l3541:
  4405                           ;CAN.H: 60: RXF5SIDL = RXF0SIDL;
  4406  00120C  CEE1 FEF5          	movff	(3809),(3829)	;volatile
  4407                           	line	61
  4408                           	
  4409  001210                     l3543:
  4410                           ;CAN.H: 61: RXF5EIDH = RXF0EIDH;
  4411  001210  CEE2 FEF6          	movff	(3810),(3830)	;volatile
  4412                           	line	62
  4413                           	
  4414  001214                     l3545:
  4415                           ;CAN.H: 62: RXF5EIDL = RXF0EIDL;
  4416  001214  CEE3 FEF7          	movff	(3811),(3831)	;volatile
  4417                           	line	65
  4418                           ;CAN.H: 65: RXM0SIDH = 0x1f;
  4419  001218  0E1F               	movlw	low(01Fh)
  4420  00121A  010E               	movlb	14	; () banked
  4421  00121C  010E               	movlb	14	; () banked
  4422  00121E  6FF8               	movwf	((3832))&0ffh	;volatile
  4423                           	line	66
  4424                           ;CAN.H: 66: RXM0SIDL = 0x83;
  4425  001220  0E83               	movlw	low(083h)
  4426  001222  010E               	movlb	14	; () banked
  4427  001224  010E               	movlb	14	; () banked
  4428  001226  6FF9               	movwf	((3833))&0ffh	;volatile
  4429                           	line	67
  4430                           ;CAN.H: 67: RXM0EIDH = 0xf0;
  4431  001228  0EF0               	movlw	low(0F0h)
  4432  00122A  010E               	movlb	14	; () banked
  4433  00122C  010E               	movlb	14	; () banked
  4434  00122E  6FFA               	movwf	((3834))&0ffh	;volatile
  4435                           	line	68
  4436                           ;CAN.H: 68: RXM0EIDL = 0x00;
  4437  001230  0E00               	movlw	low(0)
  4438  001232  010E               	movlb	14	; () banked
  4439  001234  010E               	movlb	14	; () banked
  4440  001236  6FFB               	movwf	((3835))&0ffh	;volatile
  4441                           	line	71
  4442                           ;CAN.H: 71: RXM1SIDH = 0x1f;
  4443  001238  0E1F               	movlw	low(01Fh)
  4444  00123A  010E               	movlb	14	; () banked
  4445  00123C  010E               	movlb	14	; () banked
  4446  00123E  6FFC               	movwf	((3836))&0ffh	;volatile
  4447                           	line	72
  4448                           ;CAN.H: 72: RXM1SIDL = 0xe3;
  4449  001240  0EE3               	movlw	low(0E3h)
  4450  001242  010E               	movlb	14	; () banked
  4451  001244  010E               	movlb	14	; () banked
  4452  001246  6FFD               	movwf	((3837))&0ffh	;volatile
  4453                           	line	73
  4454                           ;CAN.H: 73: RXM1EIDH = 0xf0;
  4455  001248  0EF0               	movlw	low(0F0h)
  4456  00124A  010E               	movlb	14	; () banked
  4457  00124C  010E               	movlb	14	; () banked
  4458  00124E  6FFE               	movwf	((3838))&0ffh	;volatile
  4459                           	line	74
  4460                           ;CAN.H: 74: RXM1EIDL = 0x00;
  4461  001250  0E00               	movlw	low(0)
  4462  001252  010E               	movlb	14	; () banked
  4463  001254  010E               	movlb	14	; () banked
  4464  001256  6FFF               	movwf	((3839))&0ffh	;volatile
  4465                           	line	76
  4466                           	
  4467  001258                     l327:
  4468  001258  0012               	return
  4469                           	opt stack 0
  4470                           GLOBAL	__end_of_CANFilterSet
  4471  00125A                     	__end_of_CANFilterSet:
  4472                           	signat	_CANFilterSet,8312
  4473                           	global	_CANErrClr
  4474                           
  4475 ;; *************** function _CANErrClr *****************
  4476 ;; Defined at:
  4477 ;;		line 80 in file "E:\WorkSpace\YellowFlashingController20140317\CAN.H"
  4478 ;; Parameters:    Size  Location     Type
  4479 ;;		None
  4480 ;; Auto vars:     Size  Location     Type
  4481 ;;		None
  4482 ;; Return value:  Size  Location     Type
  4483 ;;		None               void
  4484 ;; Registers used:
  4485 ;;		None
  4486 ;; Tracked objects:
  4487 ;;		On entry : 0/0
  4488 ;;		On exit  : 0/0
  4489 ;;		Unchanged: 0/0
  4490 ;; Data sizes:     COMRAM   BANK0   BANK1   BANK2   BANK3   BANK4   BANK5   BANK6   BANK7   BANK8   BANK9  BANK10  BANK1
       1  BANK12  BANK13  BANK14
  4491 ;;      Params:         0       0       0       0       0       0       0       0       0       0       0       0       
       0       0       0       0
  4492 ;;      Locals:         0       0       0       0       0       0       0       0       0       0       0       0       
       0       0       0       0
  4493 ;;      Temps:          0       0       0       0       0       0       0       0       0       0       0       0       
       0       0       0       0
  4494 ;;      Totals:         0       0       0       0       0       0       0       0       0       0       0       0       
       0       0       0       0
  4495 ;;Total ram usage:        0 bytes
  4496 ;; Hardware stack levels used:    1
  4497 ;; Hardware stack levels required when called:    4
  4498 ;; This function calls:
  4499 ;;		Nothing
  4500 ;; This function is called by:
  4501 ;;		_CANInit
  4502 ;; This function uses a non-reentrant model
  4503 ;;
  4504                           psect	text6,class=CODE,space=0,reloc=2
  4505                           global __ptext6
  4506  001BA8                     __ptext6:
  4507                           psect	text6
  4508                           	file	"E:\WorkSpace\YellowFlashingController20140317\CAN.H"
  4509                           	line	80
  4510                           	global	__size_of_CANErrClr
  4511  0000                     	__size_of_CANErrClr	equ	__end_of_CANErrClr-_CANErrClr
  4512                           	
  4513  001BA8                     _CANErrClr:
  4514                           	opt	stack 24
  4515                           	line	83
  4516                           	
  4517  001BA8                     l330:
  4518  001BA8  0012               	return
  4519                           	opt stack 0
  4520                           GLOBAL	__end_of_CANErrClr
  4521  001BAA                     	__end_of_CANErrClr:
  4522                           	signat	_CANErrClr,88
  4523                           	global	_CANSetID
  4524                           
  4525 ;; *************** function _CANSetID *****************
  4526 ;; Defined at:
  4527 ;;		line 89 in file "E:\WorkSpace\YellowFlashingController20140317\CAN.H"
  4528 ;; Parameters:    Size  Location     Type
  4529 ;;  board_addr      1   18[COMRAM] unsigned char 
  4530 ;;  f_type          1   19[COMRAM] unsigned char 
  4531 ;; Auto vars:     Size  Location     Type
  4532 ;;		None
  4533 ;; Return value:  Size  Location     Type
  4534 ;;		None               void
  4535 ;; Registers used:
  4536 ;;		wreg, status,2, status,0
  4537 ;; Tracked objects:
  4538 ;;		On entry : 0/0
  4539 ;;		On exit  : 0/0
  4540 ;;		Unchanged: 0/0
  4541 ;; Data sizes:     COMRAM   BANK0   BANK1   BANK2   BANK3   BANK4   BANK5   BANK6   BANK7   BANK8   BANK9  BANK10  BANK1
       1  BANK12  BANK13  BANK14
  4542 ;;      Params:         2       0       0       0       0       0       0       0       0       0       0       0       
       0       0       0       0
  4543 ;;      Locals:         0       0       0       0       0       0       0       0       0       0       0       0       
       0       0       0       0
  4544 ;;      Temps:          1       0       0       0       0       0       0       0       0       0       0       0       
       0       0       0       0
  4545 ;;      Totals:         3       0       0       0       0       0       0       0       0       0       0       0       
       0       0       0       0
  4546 ;;Total ram usage:        3 bytes
  4547 ;; Hardware stack levels used:    1
  4548 ;; Hardware stack levels required when called:    4
  4549 ;; This function calls:
  4550 ;;		Nothing
  4551 ;; This function is called by:
  4552 ;;		_CANInit
  4553 ;; This function uses a non-reentrant model
  4554 ;;
  4555                           psect	text7,class=CODE,space=0,reloc=2
  4556                           global __ptext7
  4557  00173C                     __ptext7:
  4558                           psect	text7
  4559                           	file	"E:\WorkSpace\YellowFlashingController20140317\CAN.H"
  4560                           	line	89
  4561                           	global	__size_of_CANSetID
  4562  0000                     	__size_of_CANSetID	equ	__end_of_CANSetID-_CANSetID
  4563                           	
  4564  00173C                     _CANSetID:
  4565                           	opt	stack 24
  4566                           	line	91
  4567                           	
  4568  00173C                     l3547:
  4569                           ;CAN.H: 91: TXB0SIDH = 0;
  4570  00173C  0E00               	movlw	low(0)
  4571  00173E  010F               	movlb	15	; () banked
  4572  001740  010F               	movlb	15	; () banked
  4573  001742  6F21               	movwf	((3873))&0ffh	;volatile
  4574                           	line	92
  4575                           	
  4576  001744                     l3549:
  4577                           ;CAN.H: 92: TXB0SIDH = (f_type<<5)|(board_addr>>1);
  4578  001744  C013  F015         	movff	(c:CANSetID@board_addr),??_CANSetID+0+0
  4579  001748  90D8               	bcf	status,0
  4580  00174A  3215               	rrcf	(??_CANSetID+0+0),c
  4581                           
  4582  00174C  3814               	swapf	((c:CANSetID@f_type)),c,w
  4583  00174E  46E8               	rlncf	wreg
  4584  001750  0BE0               	andlw	(0ffh shl 5) & 0ffh
  4585  001752  1015               	iorwf	(??_CANSetID+0+0),c,w
  4586  001754  010F               	movlb	15	; () banked
  4587  001756  010F               	movlb	15	; () banked
  4588  001758  6F21               	movwf	((3873))&0ffh	;volatile
  4589                           	line	93
  4590                           	
  4591  00175A                     l3551:
  4592                           ;CAN.H: 93: TXB0SIDL = 0;
  4593  00175A  0E00               	movlw	low(0)
  4594  00175C  010F               	movlb	15	; () banked
  4595  00175E  010F               	movlb	15	; () banked
  4596  001760  6F22               	movwf	((3874))&0ffh	;volatile
  4597                           	line	94
  4598                           ;CAN.H: 94: TXB0SIDL = (board_addr<<7)|(0x00<<5)|0x08|(0x10>>4);
  4599  001762  4013               	rrncf	((c:CANSetID@board_addr)),c,w
  4600  001764  0B80               	andlw	(0ffh shl 7) & 0ffh
  4601  001766  0909               	iorlw	low(09h)
  4602  001768  010F               	movlb	15	; () banked
  4603  00176A  010F               	movlb	15	; () banked
  4604  00176C  6F22               	movwf	((3874))&0ffh	;volatile
  4605                           	line	95
  4606                           	
  4607  00176E                     l3553:
  4608                           ;CAN.H: 95: TXB0EIDH = 0;
  4609  00176E  0E00               	movlw	low(0)
  4610  001770  010F               	movlb	15	; () banked
  4611  001772  010F               	movlb	15	; () banked
  4612  001774  6F23               	movwf	((3875))&0ffh	;volatile
  4613                           	line	96
  4614                           	
  4615  001776                     l3555:
  4616                           ;CAN.H: 96: TXB0EIDH = (0x10<<4)|0x0f;
  4617  001776  0E0F               	movlw	low(0Fh)
  4618  001778  010F               	movlb	15	; () banked
  4619  00177A  010F               	movlb	15	; () banked
  4620  00177C  6F23               	movwf	((3875))&0ffh	;volatile
  4621                           	line	97
  4622                           	
  4623  00177E                     l3557:
  4624                           ;CAN.H: 97: TXB0EIDL = 0;
  4625  00177E  0E00               	movlw	low(0)
  4626  001780  010F               	movlb	15	; () banked
  4627  001782  010F               	movlb	15	; () banked
  4628  001784  6F24               	movwf	((3876))&0ffh	;volatile
  4629                           	line	98
  4630                           	
  4631  001786                     l3559:
  4632                           ;CAN.H: 98: TXB0EIDL = 0xF0|0x0f;
  4633  001786  010F               	movlb	15	; () banked
  4634  001788  010F               	movlb	15	; () banked
  4635  00178A  6924               	setf	((3876))&0ffh	;volatile
  4636                           	line	101
  4637                           	
  4638  00178C                     l3561:
  4639                           ;CAN.H: 101: TXB1SIDH = TXB0SIDH;
  4640  00178C  CF21 FF11          	movff	(3873),(3857)	;volatile
  4641                           	line	102
  4642                           	
  4643  001790                     l3563:
  4644                           ;CAN.H: 102: TXB1SIDL = TXB0SIDL;
  4645  001790  CF22 FF12          	movff	(3874),(3858)	;volatile
  4646                           	line	103
  4647                           	
  4648  001794                     l3565:
  4649                           ;CAN.H: 103: TXB1EIDH = TXB0EIDH;
  4650  001794  CF23 FF13          	movff	(3875),(3859)	;volatile
  4651                           	line	104
  4652                           	
  4653  001798                     l3567:
  4654                           ;CAN.H: 104: TXB1EIDL = TXB0EIDL;
  4655  001798  CF24 FF14          	movff	(3876),(3860)	;volatile
  4656                           	line	107
  4657                           	
  4658  00179C                     l3569:
  4659                           ;CAN.H: 107: TXB2SIDH = TXB0SIDH;
  4660  00179C  CF21 FF01          	movff	(3873),(3841)	;volatile
  4661                           	line	108
  4662                           	
  4663  0017A0                     l3571:
  4664                           ;CAN.H: 108: TXB2SIDL = TXB0SIDL;
  4665  0017A0  CF22 FF02          	movff	(3874),(3842)	;volatile
  4666                           	line	109
  4667                           	
  4668  0017A4                     l3573:
  4669                           ;CAN.H: 109: TXB2EIDH = TXB0EIDH;
  4670  0017A4  CF23 FF03          	movff	(3875),(3843)	;volatile
  4671                           	line	110
  4672                           	
  4673  0017A8                     l3575:
  4674                           ;CAN.H: 110: TXB2EIDL = TXB0EIDL;
  4675  0017A8  CF24 FF04          	movff	(3876),(3844)	;volatile
  4676                           	line	111
  4677                           	
  4678  0017AC                     l333:
  4679  0017AC  0012               	return
  4680                           	opt stack 0
  4681                           GLOBAL	__end_of_CANSetID
  4682  0017AE                     	__end_of_CANSetID:
  4683                           	signat	_CANSetID,8312
  4684                           	global	_delayms
  4685                           
  4686 ;; *************** function _delayms *****************
  4687 ;; Defined at:
  4688 ;;		line 107 in file "E:\WorkSpace\YellowFlashingController20140317\mcu.h"
  4689 ;; Parameters:    Size  Location     Type
  4690 ;;  ms              2   22[COMRAM] unsigned int 
  4691 ;; Auto vars:     Size  Location     Type
  4692 ;;  i               2   24[COMRAM] unsigned int 
  4693 ;; Return value:  Size  Location     Type
  4694 ;;		None               void
  4695 ;; Registers used:
  4696 ;;		wreg, status,2, status,0, cstack
  4697 ;; Tracked objects:
  4698 ;;		On entry : 0/0
  4699 ;;		On exit  : 0/0
  4700 ;;		Unchanged: 0/0
  4701 ;; Data sizes:     COMRAM   BANK0   BANK1   BANK2   BANK3   BANK4   BANK5   BANK6   BANK7   BANK8   BANK9  BANK10  BANK1
       1  BANK12  BANK13  BANK14
  4702 ;;      Params:         2       0       0       0       0       0       0       0       0       0       0       0       
       0       0       0       0
  4703 ;;      Locals:         2       0       0       0       0       0       0       0       0       0       0       0       
       0       0       0       0
  4704 ;;      Temps:          0       0       0       0       0       0       0       0       0       0       0       0       
       0       0       0       0
  4705 ;;      Totals:         4       0       0       0       0       0       0       0       0       0       0       0       
       0       0       0       0
  4706 ;;Total ram usage:        4 bytes
  4707 ;; Hardware stack levels used:    1
  4708 ;; Hardware stack levels required when called:    5
  4709 ;; This function calls:
  4710 ;;		_delayus
  4711 ;; This function is called by:
  4712 ;;		_main
  4713 ;; This function uses a non-reentrant model
  4714 ;;
  4715                           psect	text8,class=CODE,space=0,reloc=2
  4716                           global __ptext8
  4717  001AAC                     __ptext8:
  4718                           psect	text8
  4719                           	file	"E:\WorkSpace\YellowFlashingController20140317\mcu.h"
  4720                           	line	107
  4721                           	global	__size_of_delayms
  4722  0000                     	__size_of_delayms	equ	__end_of_delayms-_delayms
  4723                           	
  4724  001AAC                     _delayms:
  4725                           	opt	stack 25
  4726                           	line	111
  4727                           	
  4728  001AAC                     l3833:
  4729                           ;mcu.h: 108: unsigned int i;
  4730                           ;mcu.h: 111: for(i=0;i<ms;i++)
  4731  001AAC  0E00               	movlw	high(0)
  4732  001AAE  6E1A               	movwf	((c:delayms@i+1)),c
  4733  001AB0  0E00               	movlw	low(0)
  4734  001AB2  6E19               	movwf	((c:delayms@i)),c
  4735  001AB4  D009               	goto	l3839
  4736                           	line	112
  4737                           	
  4738  001AB6                     l390:
  4739                           	line	113
  4740                           	
  4741  001AB6                     l3835:
  4742                           ;mcu.h: 112: {
  4743                           ;mcu.h: 113: delayus(997);
  4744  001AB6  0E03               	movlw	high(03E5h)
  4745  001AB8  6E14               	movwf	((c:?_delayus+1)),c
  4746  001ABA  0EE5               	movlw	low(03E5h)
  4747  001ABC  6E13               	movwf	((c:?_delayus)),c
  4748  001ABE  EC6E  F00D         	call	_delayus	;wreg free
  4749                           	line	111
  4750                           	
  4751  001AC2                     l3837:
  4752  001AC2  4A19               	infsnz	((c:delayms@i)),c
  4753  001AC4  2A1A               	incf	((c:delayms@i+1)),c
  4754  001AC6  D000               	goto	l3839
  4755                           	
  4756  001AC8                     l389:
  4757                           	
  4758  001AC8                     l3839:
  4759  001AC8  5017               	movf	((c:delayms@ms)),c,w
  4760  001ACA  5C19               	subwf	((c:delayms@i)),c,w
  4761  001ACC  5018               	movf	((c:delayms@ms+1)),c,w
  4762  001ACE  581A               	subwfb	((c:delayms@i+1)),c,w
  4763  001AD0  A0D8               	btfss	status,0
  4764  001AD2  D001               	goto	u2661
  4765  001AD4  D001               	goto	u2660
  4766  001AD6                     u2661:
  4767  001AD6  D7EF               	goto	l3835
  4768  001AD8                     u2660:
  4769  001AD8  D000               	goto	l392
  4770                           	
  4771  001ADA                     l391:
  4772                           	line	116
  4773                           	
  4774  001ADA                     l392:
  4775  001ADA  0012               	return
  4776                           	opt stack 0
  4777                           GLOBAL	__end_of_delayms
  4778  001ADC                     	__end_of_delayms:
  4779                           	signat	_delayms,4216
  4780                           	global	_delayus
  4781                           
  4782 ;; *************** function _delayus *****************
  4783 ;; Defined at:
  4784 ;;		line 91 in file "E:\WorkSpace\YellowFlashingController20140317\mcu.h"
  4785 ;; Parameters:    Size  Location     Type
  4786 ;;  us              2   18[COMRAM] unsigned int 
  4787 ;; Auto vars:     Size  Location     Type
  4788 ;;  i               2   20[COMRAM] unsigned int 
  4789 ;; Return value:  Size  Location     Type
  4790 ;;		None               void
  4791 ;; Registers used:
  4792 ;;		wreg, status,2, status,0
  4793 ;; Tracked objects:
  4794 ;;		On entry : 0/0
  4795 ;;		On exit  : 0/0
  4796 ;;		Unchanged: 0/0
  4797 ;; Data sizes:     COMRAM   BANK0   BANK1   BANK2   BANK3   BANK4   BANK5   BANK6   BANK7   BANK8   BANK9  BANK10  BANK1
       1  BANK12  BANK13  BANK14
  4798 ;;      Params:         2       0       0       0       0       0       0       0       0       0       0       0       
       0       0       0       0
  4799 ;;      Locals:         2       0       0       0       0       0       0       0       0       0       0       0       
       0       0       0       0
  4800 ;;      Temps:          0       0       0       0       0       0       0       0       0       0       0       0       
       0       0       0       0
  4801 ;;      Totals:         4       0       0       0       0       0       0       0       0       0       0       0       
       0       0       0       0
  4802 ;;Total ram usage:        4 bytes
  4803 ;; Hardware stack levels used:    1
  4804 ;; Hardware stack levels required when called:    4
  4805 ;; This function calls:
  4806 ;;		Nothing
  4807 ;; This function is called by:
  4808 ;;		_delayms
  4809 ;; This function uses a non-reentrant model
  4810 ;;
  4811                           psect	text9,class=CODE,space=0,reloc=2
  4812                           global __ptext9
  4813  001ADC                     __ptext9:
  4814                           psect	text9
  4815                           	file	"E:\WorkSpace\YellowFlashingController20140317\mcu.h"
  4816                           	line	91
  4817                           	global	__size_of_delayus
  4818  0000                     	__size_of_delayus	equ	__end_of_delayus-_delayus
  4819                           	
  4820  001ADC                     _delayus:
  4821                           	opt	stack 25
  4822                           	line	94
  4823                           	
  4824  001ADC                     l3825:
  4825                           ;mcu.h: 93: unsigned int i;
  4826                           ;mcu.h: 94: us=us-5;
  4827  001ADC  0EFB               	movlw	low(0FFFBh)
  4828  001ADE  2413               	addwf	((c:delayus@us)),c,w
  4829                           	
  4830  001AE0  6E13               	movwf	((c:delayus@us)),c
  4831  001AE2  0EFF               	movlw	high(0FFFBh)
  4832  001AE4  2014               	addwfc	((c:delayus@us+1)),c,w
  4833  001AE6  6E14               	movwf	1+((c:delayus@us)),c
  4834                           	line	96
  4835                           	
  4836  001AE8                     l3827:
  4837                           ;mcu.h: 96: for(i=0;i<us;i++)
  4838  001AE8  0E00               	movlw	high(0)
  4839  001AEA  6E16               	movwf	((c:delayus@i+1)),c
  4840  001AEC  0E00               	movlw	low(0)
  4841  001AEE  6E15               	movwf	((c:delayus@i)),c
  4842  001AF0  D003               	goto	l3831
  4843                           	line	97
  4844                           	
  4845  001AF2                     l384:
  4846                           	line	96
  4847                           	
  4848  001AF2                     l3829:
  4849                           ;mcu.h: 97: {
  4850                           ;mcu.h: 98: ;
  4851  001AF2  4A15               	infsnz	((c:delayus@i)),c
  4852  001AF4  2A16               	incf	((c:delayus@i+1)),c
  4853  001AF6  D000               	goto	l3831
  4854                           	
  4855  001AF8                     l383:
  4856                           	
  4857  001AF8                     l3831:
  4858  001AF8  5013               	movf	((c:delayus@us)),c,w
  4859  001AFA  5C15               	subwf	((c:delayus@i)),c,w
  4860  001AFC  5014               	movf	((c:delayus@us+1)),c,w
  4861  001AFE  5816               	subwfb	((c:delayus@i+1)),c,w
  4862  001B00  A0D8               	btfss	status,0
  4863  001B02  D001               	goto	u2651
  4864  001B04  D001               	goto	u2650
  4865  001B06                     u2651:
  4866  001B06  D7F5               	goto	l3829
  4867  001B08                     u2650:
  4868  001B08  D000               	goto	l386
  4869                           	
  4870  001B0A                     l385:
  4871                           	line	102
  4872                           	
  4873  001B0A                     l386:
  4874  001B0A  0012               	return
  4875                           	opt stack 0
  4876                           GLOBAL	__end_of_delayus
  4877  001B0C                     	__end_of_delayus:
  4878                           	signat	_delayus,4216
  4879                           	global	_PORTInit
  4880                           
  4881 ;; *************** function _PORTInit *****************
  4882 ;; Defined at:
  4883 ;;		line 321 in file "E:\WorkSpace\YellowFlashingController20140317\YellowFlash.C"
  4884 ;; Parameters:    Size  Location     Type
  4885 ;;		None
  4886 ;; Auto vars:     Size  Location     Type
  4887 ;;		None
  4888 ;; Return value:  Size  Location     Type
  4889 ;;		None               void
  4890 ;; Registers used:
  4891 ;;		wreg, status,2
  4892 ;; Tracked objects:
  4893 ;;		On entry : 0/0
  4894 ;;		On exit  : 0/0
  4895 ;;		Unchanged: 0/0
  4896 ;; Data sizes:     COMRAM   BANK0   BANK1   BANK2   BANK3   BANK4   BANK5   BANK6   BANK7   BANK8   BANK9  BANK10  BANK1
       1  BANK12  BANK13  BANK14
  4897 ;;      Params:         0       0       0       0       0       0       0       0       0       0       0       0       
       0       0       0       0
  4898 ;;      Locals:         0       0       0       0       0       0       0       0       0       0       0       0       
       0       0       0       0
  4899 ;;      Temps:          0       0       0       0       0       0       0       0       0       0       0       0       
       0       0       0       0
  4900 ;;      Totals:         0       0       0       0       0       0       0       0       0       0       0       0       
       0       0       0       0
  4901 ;;Total ram usage:        0 bytes
  4902 ;; Hardware stack levels used:    1
  4903 ;; Hardware stack levels required when called:    4
  4904 ;; This function calls:
  4905 ;;		Nothing
  4906 ;; This function is called by:
  4907 ;;		_main
  4908 ;; This function uses a non-reentrant model
  4909 ;;
  4910                           psect	text10,class=CODE,space=0,reloc=2
  4911                           global __ptext10
  4912  001B78                     __ptext10:
  4913                           psect	text10
  4914                           	file	"E:\WorkSpace\YellowFlashingController20140317\YellowFlash.C"
  4915                           	line	321
  4916                           	global	__size_of_PORTInit
  4917  0000                     	__size_of_PORTInit	equ	__end_of_PORTInit-_PORTInit
  4918                           	
  4919  001B78                     _PORTInit:
  4920                           	opt	stack 26
  4921                           	line	325
  4922                           	
  4923  001B78                     l3877:
  4924                           ;YellowFlash.C: 325: TRISB = 0xe0;
  4925  001B78  0EE0               	movlw	low(0E0h)
  4926  001B7A  6E93               	movwf	((c:3987)),c	;volatile
  4927                           	line	326
  4928                           ;YellowFlash.C: 326: TRISC = 0x8f;
  4929  001B7C  0E8F               	movlw	low(08Fh)
  4930  001B7E  6E94               	movwf	((c:3988)),c	;volatile
  4931                           	line	327
  4932                           ;YellowFlash.C: 327: TRISD = 0xf3;
  4933  001B80  0EF3               	movlw	low(0F3h)
  4934  001B82  6E95               	movwf	((c:3989)),c	;volatile
  4935                           	line	329
  4936                           ;YellowFlash.C: 329: ANCON1 = 0X00;
  4937  001B84  0E00               	movlw	low(0)
  4938  001B86  010F               	movlb	15	; () banked
  4939  001B88  010F               	movlb	15	; () banked
  4940  001B8A  6F5C               	movwf	((3932))&0ffh	;volatile
  4941                           	line	330
  4942                           	
  4943  001B8C                     l3879:
  4944                           ;YellowFlash.C: 330: RC5=0;
  4945  001B8C  9A82               	bcf	c:(31765/8),(31765)&7	;volatile
  4946                           	line	331
  4947                           	
  4948  001B8E                     l3881:
  4949                           ;YellowFlash.C: 331: RC6=1;
  4950  001B8E  8C82               	bsf	c:(31766/8),(31766)&7	;volatile
  4951                           	line	332
  4952                           	
  4953  001B90                     l3883:
  4954                           ;YellowFlash.C: 332: RC4=1;
  4955  001B90  8882               	bsf	c:(31764/8),(31764)&7	;volatile
  4956                           	line	333
  4957                           	
  4958  001B92                     l3885:
  4959                           ;YellowFlash.C: 333: RD3=1;
  4960  001B92  8683               	bsf	c:(31771/8),(31771)&7	;volatile
  4961                           	line	363
  4962                           	
  4963  001B94                     l519:
  4964  001B94  0012               	return
  4965                           	opt stack 0
  4966                           GLOBAL	__end_of_PORTInit
  4967  001B96                     	__end_of_PORTInit:
  4968                           	signat	_PORTInit,88
  4969                           	global	_IntManager
  4970                           
  4971 ;; *************** function _IntManager *****************
  4972 ;; Defined at:
  4973 ;;		line 367 in file "E:\WorkSpace\YellowFlashingController20140317\YellowFlash.C"
  4974 ;; Parameters:    Size  Location     Type
  4975 ;;		None
  4976 ;; Auto vars:     Size  Location     Type
  4977 ;;		None
  4978 ;; Return value:  Size  Location     Type
  4979 ;;		None               void
  4980 ;; Registers used:
  4981 ;;		wreg, status,2, status,0
  4982 ;; Tracked objects:
  4983 ;;		On entry : 0/0
  4984 ;;		On exit  : 0/0
  4985 ;;		Unchanged: 0/0
  4986 ;; Data sizes:     COMRAM   BANK0   BANK1   BANK2   BANK3   BANK4   BANK5   BANK6   BANK7   BANK8   BANK9  BANK10  BANK1
       1  BANK12  BANK13  BANK14
  4987 ;;      Params:         0       0       0       0       0       0       0       0       0       0       0       0       
       0       0       0       0
  4988 ;;      Locals:         0       0       0       0       0       0       0       0       0       0       0       0       
       0       0       0       0
  4989 ;;      Temps:          0       0       0       0       0       0       0       0       0       0       0       0       
       0       0       0       0
  4990 ;;      Totals:         0       0       0       0       0       0       0       0       0       0       0       0       
       0       0       0       0
  4991 ;;Total ram usage:        0 bytes
  4992 ;; Hardware stack levels used:    1
  4993 ;; Hardware stack levels required when called:    4
  4994 ;; This function calls:
  4995 ;;		Nothing
  4996 ;; This function is called by:
  4997 ;;		_main
  4998 ;; This function uses a non-reentrant model
  4999 ;;
  5000                           psect	text11,class=CODE,space=0,reloc=2
  5001                           global __ptext11
  5002  001B0C                     __ptext11:
  5003                           psect	text11
  5004                           	file	"E:\WorkSpace\YellowFlashingController20140317\YellowFlash.C"
  5005                           	line	367
  5006                           	global	__size_of_IntManager
  5007  0000                     	__size_of_IntManager	equ	__end_of_IntManager-_IntManager
  5008                           	
  5009  001B0C                     _IntManager:
  5010                           	opt	stack 26
  5011                           	line	369
  5012                           	
  5013  001B0C                     l3887:
  5014                           ;YellowFlash.C: 369: INTCON |= 0xc0;
  5015  001B0C  0EC0               	movlw	(0C0h)&0ffh
  5016  001B0E  12F2               	iorwf	((c:4082)),c	;volatile
  5017                           	line	373
  5018                           	
  5019  001B10                     l3889:
  5020                           ;YellowFlash.C: 373: TMR0IE = 1;
  5021  001B10  8AF2               	bsf	c:(32661/8),(32661)&7	;volatile
  5022                           	line	374
  5023                           	
  5024  001B12                     l3891:
  5025                           ;YellowFlash.C: 374: TMR0IF = 0;
  5026  001B12  94F2               	bcf	c:(32658/8),(32658)&7	;volatile
  5027                           	line	375
  5028                           	
  5029  001B14                     l3893:
  5030                           ;YellowFlash.C: 375: T08BIT = 0;
  5031  001B14  9CD5               	bcf	c:(32430/8),(32430)&7	;volatile
  5032                           	line	376
  5033                           	
  5034  001B16                     l3895:
  5035                           ;YellowFlash.C: 376: T0CS = 0;
  5036  001B16  9AD5               	bcf	c:(32429/8),(32429)&7	;volatile
  5037                           	line	378
  5038                           	
  5039  001B18                     l3897:
  5040                           ;YellowFlash.C: 378: TMR0H = 0xd8;
  5041  001B18  0ED8               	movlw	low(0D8h)
  5042  001B1A  6ED7               	movwf	((c:4055)),c	;volatile
  5043                           	line	379
  5044                           	
  5045  001B1C                     l3899:
  5046                           ;YellowFlash.C: 379: TMR0L = 0xef;
  5047  001B1C  0EEF               	movlw	low(0EFh)
  5048  001B1E  6ED6               	movwf	((c:4054)),c	;volatile
  5049                           	line	381
  5050                           	
  5051  001B20                     l3901:
  5052                           ;YellowFlash.C: 381: TMR0ON = 1;
  5053  001B20  8ED5               	bsf	c:(32431/8),(32431)&7	;volatile
  5054                           	line	384
  5055                           	
  5056  001B22                     l3903:
  5057                           ;YellowFlash.C: 384: TMR1IE = 1;
  5058  001B22  809D               	bsf	c:(31976/8),(31976)&7	;volatile
  5059                           	line	385
  5060                           	
  5061  001B24                     l3905:
  5062                           ;YellowFlash.C: 385: TMR1IF = 0;
  5063  001B24  909E               	bcf	c:(31984/8),(31984)&7	;volatile
  5064                           	line	386
  5065                           	
  5066  001B26                     l3907:
  5067                           ;YellowFlash.C: 386: T1CON = 0x00;
  5068  001B26  0E00               	movlw	low(0)
  5069  001B28  6ECD               	movwf	((c:4045)),c	;volatile
  5070                           	line	388
  5071                           	
  5072  001B2A                     l3909:
  5073                           ;YellowFlash.C: 388: TMR1H = 0x3c;
  5074  001B2A  0E3C               	movlw	low(03Ch)
  5075  001B2C  6ECF               	movwf	((c:4047)),c	;volatile
  5076                           	line	389
  5077                           	
  5078  001B2E                     l3911:
  5079                           ;YellowFlash.C: 389: TMR1L = 0xaf;
  5080  001B2E  0EAF               	movlw	low(0AFh)
  5081  001B30  6ECE               	movwf	((c:4046)),c	;volatile
  5082                           	line	397
  5083                           	
  5084  001B32                     l522:
  5085  001B32  0012               	return
  5086                           	opt stack 0
  5087                           GLOBAL	__end_of_IntManager
  5088  001B34                     	__end_of_IntManager:
  5089                           	signat	_IntManager,88
  5090                           	global	_CANDATAAnalyzing
  5091                           
  5092 ;; *************** function _CANDATAAnalyzing *****************
  5093 ;; Defined at:
  5094 ;;		line 552 in file "E:\WorkSpace\YellowFlashingController20140317\YellowFlash.C"
  5095 ;; Parameters:    Size  Location     Type
  5096 ;;  id              2   12[BANK0 ] PTR unsigned char 
  5097 ;;		 -> CANRid(4), 
  5098 ;;  dat             2   14[BANK0 ] PTR unsigned char 
  5099 ;;		 -> CANRdata(8), 
  5100 ;;  dlc             1   16[BANK0 ] unsigned char 
  5101 ;; Auto vars:     Size  Location     Type
  5102 ;;		None
  5103 ;; Return value:  Size  Location     Type
  5104 ;;		None               void
  5105 ;; Registers used:
  5106 ;;		wreg, fsr1l, fsr1h, fsr2l, fsr2h, status,2, status,0, prodl, prodh, cstack
  5107 ;; Tracked objects:
  5108 ;;		On entry : F/0
  5109 ;;		On exit  : 0/0
  5110 ;;		Unchanged: 0/0
  5111 ;; Data sizes:     COMRAM   BANK0   BANK1   BANK2   BANK3   BANK4   BANK5   BANK6   BANK7   BANK8   BANK9  BANK10  BANK1
       1  BANK12  BANK13  BANK14
  5112 ;;      Params:         0       5       0       0       0       0       0       0       0       0       0       0       
       0       0       0       0
  5113 ;;      Locals:         0       0       0       0       0       0       0       0       0       0       0       0       
       0       0       0       0
  5114 ;;      Temps:          0       4       0       0       0       0       0       0       0       0       0       0       
       0       0       0       0
  5115 ;;      Totals:         0       9       0       0       0       0       0       0       0       0       0       0       
       0       0       0       0
  5116 ;;Total ram usage:        9 bytes
  5117 ;; Hardware stack levels used:    1
  5118 ;; Hardware stack levels required when called:    8
  5119 ;; This function calls:
  5120 ;;		_CANSendConfirm
  5121 ;;		_CANSendID
  5122 ;;		_CANWriteID
  5123 ;;		_EEPROMRead
  5124 ;;		_CANSend
  5125 ;;		_YFlashNewConfigure
  5126 ;;		_Read_YFlash_CFG
  5127 ;; This function is called by:
  5128 ;;		_main
  5129 ;; This function uses a non-reentrant model
  5130 ;;
  5131                           psect	text12,class=CODE,space=0,reloc=2
  5132                           global __ptext12
  5133  0000D6                     __ptext12:
  5134                           psect	text12
  5135                           	file	"E:\WorkSpace\YellowFlashingController20140317\YellowFlash.C"
  5136                           	line	552
  5137                           	global	__size_of_CANDATAAnalyzing
  5138  0000                     	__size_of_CANDATAAnalyzing	equ	__end_of_CANDATAAnalyzing-_CANDATAAnalyzing
  5139                           	
  5140  0000D6                     _CANDATAAnalyzing:
  5141                           	opt	stack 22
  5142                           	line	559
  5143                           	
  5144  0000D6                     l4773:; BSR set to: 0
  5145                           
  5146                           ;YellowFlash.C: 559: switch (((dat[0] & 0xc0)>>6))
  5147  0000D6  D024               	goto	l4787
  5148                           	line	561
  5149                           ;YellowFlash.C: 560: {
  5150                           ;YellowFlash.C: 561: case 0x00:
  5151                           	
  5152  0000D8                     l554:
  5153                           	line	562
  5154                           	
  5155  0000D8                     l4775:
  5156                           ;YellowFlash.C: 562: f_r_mod = 0x00;
  5157  0000D8  0100               	movlb	0	; () banked
  5158  0000DA  6FE9               	movwf	(??_CANDATAAnalyzing+0+0)&0ffh
  5159  0000DC  0E00               	movlw	low(0)
  5160  0000DE  6E3E               	movwf	((c:_f_r_mod)),c
  5161  0000E0  0100               	movlb	0	; () banked
  5162  0000E2  51E9               	movf	(??_CANDATAAnalyzing+0+0)&0ffh,w
  5163                           	line	563
  5164                           ;YellowFlash.C: 563: break;
  5165  0000E4  D048               	goto	l4789
  5166                           	line	564
  5167                           ;YellowFlash.C: 564: case 0x01:
  5168                           	
  5169  0000E6                     l556:
  5170                           	line	565
  5171                           	
  5172  0000E6                     l4777:
  5173                           ;YellowFlash.C: 565: f_r_mod = 0x01;
  5174  0000E6  0100               	movlb	0	; () banked
  5175  0000E8  6FE9               	movwf	(??_CANDATAAnalyzing+0+0)&0ffh
  5176  0000EA  0E01               	movlw	low(01h)
  5177  0000EC  6E3E               	movwf	((c:_f_r_mod)),c
  5178  0000EE  0100               	movlb	0	; () banked
  5179  0000F0  51E9               	movf	(??_CANDATAAnalyzing+0+0)&0ffh,w
  5180                           	line	566
  5181                           ;YellowFlash.C: 566: break;
  5182  0000F2  D041               	goto	l4789
  5183                           	line	567
  5184                           ;YellowFlash.C: 567: case 0x02:
  5185                           	
  5186  0000F4                     l557:
  5187                           	line	568
  5188                           	
  5189  0000F4                     l4779:
  5190                           ;YellowFlash.C: 568: f_r_mod = 0x02;
  5191  0000F4  0100               	movlb	0	; () banked
  5192  0000F6  6FE9               	movwf	(??_CANDATAAnalyzing+0+0)&0ffh
  5193  0000F8  0E02               	movlw	low(02h)
  5194  0000FA  6E3E               	movwf	((c:_f_r_mod)),c
  5195  0000FC  0100               	movlb	0	; () banked
  5196  0000FE  51E9               	movf	(??_CANDATAAnalyzing+0+0)&0ffh,w
  5197                           	line	569
  5198                           ;YellowFlash.C: 569: break;
  5199  000100  D03A               	goto	l4789
  5200                           	line	570
  5201                           ;YellowFlash.C: 570: case 0x03:
  5202                           	
  5203  000102                     l558:
  5204                           	line	571
  5205                           	
  5206  000102                     l4781:
  5207                           ;YellowFlash.C: 571: f_r_mod = 0x03;
  5208  000102  0100               	movlb	0	; () banked
  5209  000104  6FE9               	movwf	(??_CANDATAAnalyzing+0+0)&0ffh
  5210  000106  0E03               	movlw	low(03h)
  5211  000108  6E3E               	movwf	((c:_f_r_mod)),c
  5212  00010A  0100               	movlb	0	; () banked
  5213  00010C  51E9               	movf	(??_CANDATAAnalyzing+0+0)&0ffh,w
  5214                           	line	572
  5215                           ;YellowFlash.C: 572: break;
  5216  00010E  D033               	goto	l4789
  5217                           	line	573
  5218                           ;YellowFlash.C: 573: default:
  5219                           	
  5220  000110                     l559:
  5221                           	line	574
  5222                           	
  5223  000110                     l4783:
  5224                           ;YellowFlash.C: 574: f_r_mod = 0x00;
  5225  000110  0100               	movlb	0	; () banked
  5226  000112  6FE9               	movwf	(??_CANDATAAnalyzing+0+0)&0ffh
  5227  000114  0E00               	movlw	low(0)
  5228  000116  6E3E               	movwf	((c:_f_r_mod)),c
  5229  000118  0100               	movlb	0	; () banked
  5230  00011A  51E9               	movf	(??_CANDATAAnalyzing+0+0)&0ffh,w
  5231                           	line	575
  5232                           ;YellowFlash.C: 575: break;
  5233  00011C  D02C               	goto	l4789
  5234                           	line	576
  5235                           	
  5236  00011E                     l4785:
  5237                           ;YellowFlash.C: 576: }
  5238  00011E  D02B               	goto	l4789
  5239                           	line	559
  5240                           	
  5241  000120                     l553:
  5242                           	
  5243  000120                     l4787:
  5244  000120  C0E6  FFD9         	movff	(CANDATAAnalyzing@dat),fsr2l
  5245  000124  C0E7  FFDA         	movff	(CANDATAAnalyzing@dat+1),fsr2h
  5246  000128  50DF               	movf	indf2,w
  5247  00012A  0100               	movlb	0	; () banked
  5248  00012C  6FE9               	movwf	(??_CANDATAAnalyzing+0+0)&0ffh
  5249  00012E  0E06               	movlw	06h
  5250  000130  0100               	movlb	0	; () banked
  5251  000132  6FEA               	movwf	(??_CANDATAAnalyzing+1+0)&0ffh
  5252  000134                     u3745:
  5253  000134  0100               	movlb	0	; () banked
  5254  000136  90D8               	bcf	status,0
  5255  000138  33E9               	rrcf	((??_CANDATAAnalyzing+0+0))&0ffh
  5256  00013A  0100               	movlb	0	; () banked
  5257  00013C  2FEA               	decfsz	(??_CANDATAAnalyzing+1+0)&0ffh
  5258  00013E  D7FA               	goto	u3745
  5259  000140  0100               	movlb	0	; () banked
  5260  000142  51E9               	movf	((??_CANDATAAnalyzing+0+0))&0ffh,w
  5261  000144  0B03               	andlw	low(03h)
  5262  000146  0100               	movlb	0	; () banked
  5263  000148  6FEB               	movwf	(??_CANDATAAnalyzing+2+0)&0ffh
  5264  00014A  6BEC               	clrf	(??_CANDATAAnalyzing+2+0+1)&0ffh
  5265                           
  5266                           	; Switch on 2 bytes has been partitioned into a top level switch of size 1, and 1 sub-s
                                 witches
  5267                           ; Switch size 1, requested type "space"
  5268                           ; Number of cases is 1, Range of values is 0 to 0
  5269                           ; switch strategies available:
  5270                           ; Name         Instructions Cycles
  5271                           ; simple_byte            4     3 (average)
  5272                           ;	Chosen strategy is simple_byte
  5273                           
  5274  00014C  0100               	movlb	0	; () banked
  5275  00014E  51EC               	movf ??_CANDATAAnalyzing+2+1&0ffh,w
  5276  000150  0A00               	xorlw	0^0	; case 0
  5277  000152  B4D8               	skipnz
  5278  000154  D001               	goto	l5319
  5279  000156  D7DC               	goto	l4783
  5280                           	
  5281  000158                     l5319:; BSR set to: 0
  5282                           
  5283                           ; Switch size 1, requested type "space"
  5284                           ; Number of cases is 4, Range of values is 0 to 3
  5285                           ; switch strategies available:
  5286                           ; Name         Instructions Cycles
  5287                           ; simple_byte           13     7 (average)
  5288                           ;	Chosen strategy is simple_byte
  5289                           
  5290  000158  0100               	movlb	0	; () banked
  5291  00015A  51EB               	movf ??_CANDATAAnalyzing+2+0&0ffh,w
  5292  00015C  0A00               	xorlw	0^0	; case 0
  5293  00015E  B4D8               	skipnz
  5294  000160  D7BB               	goto	l4775
  5295  000162  0A01               	xorlw	1^0	; case 1
  5296  000164  B4D8               	skipnz
  5297  000166  D7BF               	goto	l4777
  5298  000168  0A03               	xorlw	2^1	; case 2
  5299  00016A  B4D8               	skipnz
  5300  00016C  D7C3               	goto	l4779
  5301  00016E  0A01               	xorlw	3^2	; case 3
  5302  000170  B4D8               	skipnz
  5303  000172  D7C7               	goto	l4781
  5304  000174  D7CD               	goto	l4783
  5305                           
  5306                           	line	576
  5307                           	
  5308  000176                     l555:
  5309                           	line	579
  5310                           	
  5311  000176                     l4789:
  5312                           ;YellowFlash.C: 579: if(((id[1]>>5)&0x03)==0x03)
  5313  000176  0100               	movlb	0	; () banked
  5314  000178  EE20 F001          	lfsr	2,01h
  5315  00017C  0100               	movlb	0	; () banked
  5316  00017E  51E4               	movf	((CANDATAAnalyzing@id))&0ffh,w
  5317  000180  26D9               	addwf	fsr2l
  5318  000182  0100               	movlb	0	; () banked
  5319  000184  51E5               	movf	((CANDATAAnalyzing@id+1))&0ffh,w
  5320  000186  22DA               	addwfc	fsr2h
  5321  000188  50DF               	movf	indf2,w
  5322  00018A  0100               	movlb	0	; () banked
  5323  00018C  6FE9               	movwf	(??_CANDATAAnalyzing+0+0)&0ffh
  5324  00018E  0E05               	movlw	05h
  5325  000190  0100               	movlb	0	; () banked
  5326  000192  6FEA               	movwf	(??_CANDATAAnalyzing+1+0)&0ffh
  5327  000194                     u3755:
  5328  000194  0100               	movlb	0	; () banked
  5329  000196  90D8               	bcf	status,0
  5330  000198  33E9               	rrcf	((??_CANDATAAnalyzing+0+0))&0ffh
  5331  00019A  0100               	movlb	0	; () banked
  5332  00019C  2FEA               	decfsz	(??_CANDATAAnalyzing+1+0)&0ffh
  5333  00019E  D7FA               	goto	u3755
  5334  0001A0  0100               	movlb	0	; () banked
  5335  0001A2  51E9               	movf	((??_CANDATAAnalyzing+0+0))&0ffh,w
  5336  0001A4  0B03               	andlw	low(03h)
  5337  0001A6  0A03               	xorlw	03h
  5338  0001A8  A4D8               	btfss	status,2
  5339  0001AA  D001               	goto	u3761
  5340  0001AC  D001               	goto	u3760
  5341  0001AE                     u3761:
  5342  0001AE  D025               	goto	l4815
  5343  0001B0                     u3760:
  5344                           	line	581
  5345                           	
  5346  0001B0                     l4791:
  5347                           ;YellowFlash.C: 580: {
  5348                           ;YellowFlash.C: 581: if(force_status)
  5349  0001B0  503F               	movf	((c:_force_status)),c,w
  5350  0001B2  B4D8               	btfsc	status,2
  5351  0001B4  D001               	goto	u3771
  5352  0001B6  D001               	goto	u3770
  5353  0001B8                     u3771:
  5354  0001B8  D002               	goto	l4795
  5355  0001BA                     u3770:
  5356  0001BA  D176               	goto	l578
  5357                           	line	582
  5358                           	
  5359  0001BC                     l4793:
  5360                           ;YellowFlash.C: 582: {}
  5361  0001BC  D175               	goto	l578
  5362                           	line	583
  5363                           	
  5364  0001BE                     l561:
  5365                           	line	585
  5366                           	
  5367  0001BE                     l4795:
  5368                           ;YellowFlash.C: 583: else
  5369                           ;YellowFlash.C: 584: {
  5370                           ;YellowFlash.C: 585: heartbeat=0;
  5371  0001BE  0100               	movlb	0	; () banked
  5372  0001C0  6FE9               	movwf	(??_CANDATAAnalyzing+0+0)&0ffh
  5373  0001C2  0E00               	movlw	low(0)
  5374  0001C4  0100               	movlb	0	; () banked
  5375  0001C6  0100               	movlb	0	; () banked
  5376  0001C8  6FB7               	movwf	((_heartbeat))&0ffh
  5377  0001CA  0100               	movlb	0	; () banked
  5378  0001CC  51E9               	movf	(??_CANDATAAnalyzing+0+0)&0ffh,w
  5379                           	line	586
  5380                           	
  5381  0001CE                     l4797:
  5382                           ;YellowFlash.C: 586: TMR0ON = 1;
  5383  0001CE  8ED5               	bsf	c:(32431/8),(32431)&7	;volatile
  5384                           	line	587
  5385                           	
  5386  0001D0                     l4799:
  5387                           ;YellowFlash.C: 587: T1CON |= 0x00;
  5388  0001D0  50CD               	movf	((c:4045)),c,w	;volatile
  5389                           	line	588
  5390                           	
  5391  0001D2                     l4801:
  5392                           ;YellowFlash.C: 588: turnoff=0x00;
  5393  0001D2  0100               	movlb	0	; () banked
  5394  0001D4  6FE9               	movwf	(??_CANDATAAnalyzing+0+0)&0ffh
  5395  0001D6  0E00               	movlw	low(0)
  5396  0001D8  6E4A               	movwf	((c:_turnoff)),c
  5397  0001DA  0100               	movlb	0	; () banked
  5398  0001DC  51E9               	movf	(??_CANDATAAnalyzing+0+0)&0ffh,w
  5399                           	line	589
  5400                           	
  5401  0001DE                     l4803:
  5402                           ;YellowFlash.C: 589: switchmode=0;
  5403  0001DE  0100               	movlb	(_switchmode/8) >> 8
  5404  0001E0  924D               	bcf	(_switchmode/8),c,(_switchmode)&7
  5405                           	line	590
  5406                           	
  5407  0001E2                     l4805:
  5408                           ;YellowFlash.C: 590: yflash_status=0x00;
  5409  0001E2  0100               	movlb	0	; () banked
  5410  0001E4  6FE9               	movwf	(??_CANDATAAnalyzing+0+0)&0ffh
  5411  0001E6  0E00               	movlw	low(0)
  5412  0001E8  6E42               	movwf	((c:_yflash_status)),c
  5413  0001EA  0100               	movlb	0	; () banked
  5414  0001EC  51E9               	movf	(??_CANDATAAnalyzing+0+0)&0ffh,w
  5415                           	line	591
  5416                           	
  5417  0001EE                     l4807:
  5418                           ;YellowFlash.C: 591: RC6=1;
  5419  0001EE  8C82               	bsf	c:(31766/8),(31766)&7	;volatile
  5420                           	line	592
  5421                           	
  5422  0001F0                     l4809:
  5423                           ;YellowFlash.C: 592: RC4=1;
  5424  0001F0  8882               	bsf	c:(31764/8),(31764)&7	;volatile
  5425                           	line	593
  5426                           	
  5427  0001F2                     l4811:
  5428                           ;YellowFlash.C: 593: RD3=1;
  5429  0001F2  8683               	bsf	c:(31771/8),(31771)&7	;volatile
  5430                           	line	594
  5431                           	
  5432  0001F4                     l4813:
  5433                           ;YellowFlash.C: 594: RD2=0;
  5434  0001F4  9483               	bcf	c:(31770/8),(31770)&7	;volatile
  5435  0001F6  D158               	goto	l578
  5436                           	line	595
  5437                           	
  5438  0001F8                     l562:
  5439                           	line	597
  5440                           ;YellowFlash.C: 595: }
  5441                           ;YellowFlash.C: 597: }
  5442  0001F8  D157               	goto	l578
  5443                           	line	598
  5444                           	
  5445  0001FA                     l560:
  5446                           	line	602
  5447                           	
  5448  0001FA                     l4815:
  5449                           ;YellowFlash.C: 598: else
  5450                           ;YellowFlash.C: 599: {
  5451                           ;YellowFlash.C: 602: if((f_r_mod ==0x02)&&((dat[0] & 0x3f)!=0x02))
  5452  0001FA  503E               	movf	((c:_f_r_mod)),c,w
  5453  0001FC  0A02               	xorlw	2
  5454                           
  5455  0001FE  A4D8               	btfss	status,2
  5456  000200  D001               	goto	u3781
  5457  000202  D001               	goto	u3780
  5458  000204                     u3781:
  5459  000204  D11C               	goto	l4923
  5460  000206                     u3780:
  5461                           	
  5462  000206                     l4817:
  5463  000206  C0E6  FFD9         	movff	(CANDATAAnalyzing@dat),fsr2l
  5464  00020A  C0E7  FFDA         	movff	(CANDATAAnalyzing@dat+1),fsr2h
  5465  00020E  50DF               	movf	indf2,w
  5466  000210  0B3F               	andlw	low(03Fh)
  5467  000212  0A02               	xorlw	02h
  5468  000214  B4D8               	btfsc	status,2
  5469  000216  D001               	goto	u3791
  5470  000218  D001               	goto	u3790
  5471  00021A                     u3791:
  5472  00021A  D111               	goto	l4923
  5473  00021C                     u3790:
  5474                           	line	604
  5475                           	
  5476  00021C                     l4819:
  5477                           ;YellowFlash.C: 603: {
  5478                           ;YellowFlash.C: 604: CANSendConfirm();
  5479  00021C  EC64  F00B         	call	_CANSendConfirm	;wreg free
  5480  000220  D10E               	goto	l4923
  5481                           	line	605
  5482                           	
  5483  000222                     l564:
  5484                           	line	608
  5485                           ;YellowFlash.C: 605: }
  5486                           ;YellowFlash.C: 608: switch ((dat[0] & 0x3f))
  5487  000222  D10D               	goto	l4923
  5488                           	line	610
  5489                           ;YellowFlash.C: 609: {
  5490                           ;YellowFlash.C: 610: case 0X00:
  5491                           	
  5492  000224                     l566:
  5493                           	line	612
  5494                           	
  5495  000224                     l4821:
  5496                           ;YellowFlash.C: 612: if(f_r_mod ==0x01)
  5497  000224  043E               	decf	((c:_f_r_mod)),c,w
  5498                           
  5499  000226  A4D8               	btfss	status,2
  5500  000228  D001               	goto	u3801
  5501  00022A  D001               	goto	u3800
  5502  00022C                     u3801:
  5503  00022C  D12C               	goto	l4925
  5504  00022E                     u3800:
  5505                           	line	614
  5506                           	
  5507  00022E                     l4823:
  5508                           ;YellowFlash.C: 613: {
  5509                           ;YellowFlash.C: 614: CANSendID(0X00);
  5510  00022E  0100               	movlb	0	; () banked
  5511  000230  6FE9               	movwf	(??_CANDATAAnalyzing+0+0)&0ffh
  5512  000232  0E00               	movlw	low(0)
  5513  000234  6E19               	movwf	((c:?_CANSendID)),c
  5514  000236  0100               	movlb	0	; () banked
  5515  000238  51E9               	movf	(??_CANDATAAnalyzing+0+0)&0ffh,w
  5516  00023A  ECAE  F00A         	call	_CANSendID	;wreg free
  5517  00023E  D123               	goto	l4925
  5518                           	line	615
  5519                           	
  5520  000240                     l567:
  5521                           	line	616
  5522                           ;YellowFlash.C: 615: }
  5523                           ;YellowFlash.C: 616: break;
  5524  000240  D122               	goto	l4925
  5525                           	line	617
  5526                           ;YellowFlash.C: 617: case 0X01:
  5527                           	
  5528  000242                     l569:
  5529                           	line	619
  5530                           	
  5531  000242                     l4825:
  5532                           ;YellowFlash.C: 619: CANWriteID(f_r_mod);
  5533  000242  C03E  F01B         	movff	(c:_f_r_mod),(c:?_CANWriteID)
  5534  000246  ECC2  F00C         	call	_CANWriteID	;wreg free
  5535                           	line	620
  5536                           ;YellowFlash.C: 620: break;
  5537  00024A  D11D               	goto	l4925
  5538                           	line	622
  5539                           ;YellowFlash.C: 622: case 0x02:
  5540                           	
  5541  00024C                     l570:
  5542                           	line	623
  5543                           	
  5544  00024C                     l4827:
  5545                           ;YellowFlash.C: 623: CANSdlc=4;
  5546  00024C  0100               	movlb	0	; () banked
  5547  00024E  6FE9               	movwf	(??_CANDATAAnalyzing+0+0)&0ffh
  5548  000250  0E04               	movlw	low(04h)
  5549  000252  6E49               	movwf	((c:_CANSdlc)),c
  5550  000254  0100               	movlb	0	; () banked
  5551  000256  51E9               	movf	(??_CANDATAAnalyzing+0+0)&0ffh,w
  5552                           	line	624
  5553                           ;YellowFlash.C: 624: CANSdata[0]=0x02;
  5554  000258  0100               	movlb	0	; () banked
  5555  00025A  6FE9               	movwf	(??_CANDATAAnalyzing+0+0)&0ffh
  5556  00025C  0E02               	movlw	low(02h)
  5557  00025E  0100               	movlb	0	; () banked
  5558  000260  0100               	movlb	0	; () banked
  5559  000262  6FC8               	movwf	((_CANSdata))&0ffh
  5560  000264  0100               	movlb	0	; () banked
  5561  000266  51E9               	movf	(??_CANDATAAnalyzing+0+0)&0ffh,w
  5562                           	line	625
  5563                           	
  5564  000268                     l4829:
  5565                           ;YellowFlash.C: 625: eeprom_addr = 0x0009;
  5566  000268  0E00               	movlw	high(09h)
  5567  00026A  6E44               	movwf	((c:_eeprom_addr+1)),c
  5568  00026C  0E09               	movlw	low(09h)
  5569  00026E  6E43               	movwf	((c:_eeprom_addr)),c
  5570                           	line	626
  5571                           	
  5572  000270                     l4831:
  5573                           ;YellowFlash.C: 626: eeprom_num = 2;
  5574  000270  0100               	movlb	0	; () banked
  5575  000272  6FE9               	movwf	(??_CANDATAAnalyzing+0+0)&0ffh
  5576  000274  0E02               	movlw	low(02h)
  5577  000276  6E4C               	movwf	((c:_eeprom_num)),c
  5578  000278  0100               	movlb	0	; () banked
  5579  00027A  51E9               	movf	(??_CANDATAAnalyzing+0+0)&0ffh,w
  5580                           	line	627
  5581                           	
  5582  00027C                     l4833:
  5583                           ;YellowFlash.C: 627: EEPROMRead(&eeprom_addr,&eeprom_num,(CANSdata+1));
  5584  00027C  0E00               	movlw	high((c:_eeprom_addr))
  5585  00027E  6E14               	movwf	((c:?_EEPROMRead+1)),c
  5586  000280  0E43               	movlw	low((c:_eeprom_addr))
  5587  000282  6E13               	movwf	((c:?_EEPROMRead)),c
  5588  000284  0E00               	movlw	high((c:_eeprom_num))
  5589  000286  6E16               	movwf	(1+((c:?_EEPROMRead)+02h)),c
  5590  000288  0E4C               	movlw	low((c:_eeprom_num))
  5591  00028A  6E15               	movwf	(0+((c:?_EEPROMRead)+02h)),c
  5592  00028C  0100               	movlb	0	; () banked
  5593  00028E  0E00               	movlw	high(_CANSdata+01h)
  5594  000290  6E18               	movwf	(1+((c:?_EEPROMRead)+04h)),c
  5595  000292  0100               	movlb	0	; () banked
  5596  000294  0EC9               	movlw	low(_CANSdata+01h)
  5597  000296  6E17               	movwf	(0+((c:?_EEPROMRead)+04h)),c
  5598  000298  EC74  F00C         	call	_EEPROMRead	;wreg free
  5599                           	line	628
  5600                           	
  5601  00029C                     l4835:
  5602                           ;YellowFlash.C: 628: CANSdata[3]=yflash_status;
  5603  00029C  C042  F0CB         	movff	(c:_yflash_status),0+(_CANSdata+03h)
  5604                           	line	629
  5605                           	
  5606  0002A0                     l4837:
  5607                           ;YellowFlash.C: 629: CANSend(CANSid,CANSdata,CANSdlc);
  5608  0002A0  0100               	movlb	0	; () banked
  5609  0002A2  0E00               	movlw	high(_CANSid)
  5610  0002A4  6E14               	movwf	((c:?_CANSend+1)),c
  5611  0002A6  0100               	movlb	0	; () banked
  5612  0002A8  0ED4               	movlw	low(_CANSid)
  5613  0002AA  6E13               	movwf	((c:?_CANSend)),c
  5614  0002AC  0100               	movlb	0	; () banked
  5615  0002AE  0E00               	movlw	high(_CANSdata)
  5616  0002B0  6E16               	movwf	(1+((c:?_CANSend)+02h)),c
  5617  0002B2  0100               	movlb	0	; () banked
  5618  0002B4  0EC8               	movlw	low(_CANSdata)
  5619  0002B6  6E15               	movwf	(0+((c:?_CANSend)+02h)),c
  5620  0002B8  C049  F017         	movff	(c:_CANSdlc),0+((c:?_CANSend)+04h)
  5621  0002BC  EC14  F005         	call	_CANSend	;wreg free
  5622                           	line	630
  5623                           ;YellowFlash.C: 630: break;
  5624  0002C0  D0E2               	goto	l4925
  5625                           	line	632
  5626                           ;YellowFlash.C: 632: case 0x03:
  5627                           	
  5628  0002C2                     l571:
  5629                           	line	634
  5630                           	
  5631  0002C2                     l4839:
  5632                           ;YellowFlash.C: 634: YFlashNewConfigure();
  5633  0002C2  EC3B  F006         	call	_YFlashNewConfigure	;wreg free
  5634                           	line	636
  5635                           	
  5636  0002C6                     l4841:
  5637                           ;YellowFlash.C: 636: if(f_r_mod==0x01)
  5638  0002C6  043E               	decf	((c:_f_r_mod)),c,w
  5639                           
  5640  0002C8  A4D8               	btfss	status,2
  5641  0002CA  D001               	goto	u3811
  5642  0002CC  D001               	goto	u3810
  5643  0002CE                     u3811:
  5644  0002CE  D023               	goto	l4851
  5645  0002D0                     u3810:
  5646                           	line	638
  5647                           	
  5648  0002D0                     l4843:
  5649                           ;YellowFlash.C: 637: {
  5650                           ;YellowFlash.C: 638: CANSdlc=3;
  5651  0002D0  0100               	movlb	0	; () banked
  5652  0002D2  6FE9               	movwf	(??_CANDATAAnalyzing+0+0)&0ffh
  5653  0002D4  0E03               	movlw	low(03h)
  5654  0002D6  6E49               	movwf	((c:_CANSdlc)),c
  5655  0002D8  0100               	movlb	0	; () banked
  5656  0002DA  51E9               	movf	(??_CANDATAAnalyzing+0+0)&0ffh,w
  5657                           	line	639
  5658                           ;YellowFlash.C: 639: CANSdata[0]=0x03;
  5659  0002DC  0100               	movlb	0	; () banked
  5660  0002DE  6FE9               	movwf	(??_CANDATAAnalyzing+0+0)&0ffh
  5661  0002E0  0E03               	movlw	low(03h)
  5662  0002E2  0100               	movlb	0	; () banked
  5663  0002E4  0100               	movlb	0	; () banked
  5664  0002E6  6FC8               	movwf	((_CANSdata))&0ffh
  5665  0002E8  0100               	movlb	0	; () banked
  5666  0002EA  51E9               	movf	(??_CANDATAAnalyzing+0+0)&0ffh,w
  5667                           	line	640
  5668                           	
  5669  0002EC                     l4845:
  5670                           ;YellowFlash.C: 640: CANSdata[1]=yflash_CFG[0];
  5671  0002EC  C047  F0C9         	movff	(c:_yflash_CFG),0+(_CANSdata+01h)
  5672                           	line	641
  5673                           	
  5674  0002F0                     l4847:
  5675                           ;YellowFlash.C: 641: CANSdata[2]=yflash_CFG[1];
  5676  0002F0  C048  F0CA         	movff	0+((c:_yflash_CFG)+01h),0+(_CANSdata+02h)
  5677                           	line	643
  5678                           	
  5679  0002F4                     l4849:
  5680                           ;YellowFlash.C: 643: CANSend(CANSid,CANSdata,CANSdlc);
  5681  0002F4  0100               	movlb	0	; () banked
  5682  0002F6  0E00               	movlw	high(_CANSid)
  5683  0002F8  6E14               	movwf	((c:?_CANSend+1)),c
  5684  0002FA  0100               	movlb	0	; () banked
  5685  0002FC  0ED4               	movlw	low(_CANSid)
  5686  0002FE  6E13               	movwf	((c:?_CANSend)),c
  5687  000300  0100               	movlb	0	; () banked
  5688  000302  0E00               	movlw	high(_CANSdata)
  5689  000304  6E16               	movwf	(1+((c:?_CANSend)+02h)),c
  5690  000306  0100               	movlb	0	; () banked
  5691  000308  0EC8               	movlw	low(_CANSdata)
  5692  00030A  6E15               	movwf	(0+((c:?_CANSend)+02h)),c
  5693  00030C  C049  F017         	movff	(c:_CANSdlc),0+((c:?_CANSend)+04h)
  5694  000310  EC14  F005         	call	_CANSend	;wreg free
  5695  000314  D000               	goto	l4851
  5696                           	line	644
  5697                           	
  5698  000316                     l572:
  5699                           	line	646
  5700                           	
  5701  000316                     l4851:
  5702                           ;YellowFlash.C: 644: }
  5703                           ;YellowFlash.C: 646: Read_YFlash_CFG();
  5704  000316  EC9F  F009         	call	_Read_YFlash_CFG	;wreg free
  5705                           	line	648
  5706                           	
  5707  00031A                     l4853:
  5708                           ;YellowFlash.C: 648: INTCON |= 0xc0;
  5709  00031A  0EC0               	movlw	(0C0h)&0ffh
  5710  00031C  12F2               	iorwf	((c:4082)),c	;volatile
  5711                           	line	650
  5712                           	
  5713  00031E                     l4855:
  5714                           ;YellowFlash.C: 650: TMR0IE = 1;
  5715  00031E  8AF2               	bsf	c:(32661/8),(32661)&7	;volatile
  5716                           	line	651
  5717                           	
  5718  000320                     l4857:
  5719                           ;YellowFlash.C: 651: TMR0IF = 0;
  5720  000320  94F2               	bcf	c:(32658/8),(32658)&7	;volatile
  5721                           	line	652
  5722                           	
  5723  000322                     l4859:
  5724                           ;YellowFlash.C: 652: T08BIT = 0;
  5725  000322  9CD5               	bcf	c:(32430/8),(32430)&7	;volatile
  5726                           	line	653
  5727                           	
  5728  000324                     l4861:
  5729                           ;YellowFlash.C: 653: T0CS = 0;
  5730  000324  9AD5               	bcf	c:(32429/8),(32429)&7	;volatile
  5731                           	line	655
  5732                           	
  5733  000326                     l4863:
  5734                           ;YellowFlash.C: 655: TMR0H = 0xd8;
  5735  000326  0ED8               	movlw	low(0D8h)
  5736  000328  6ED7               	movwf	((c:4055)),c	;volatile
  5737                           	line	656
  5738                           	
  5739  00032A                     l4865:
  5740                           ;YellowFlash.C: 656: TMR0L = 0xef;
  5741  00032A  0EEF               	movlw	low(0EFh)
  5742  00032C  6ED6               	movwf	((c:4054)),c	;volatile
  5743                           	line	658
  5744                           	
  5745  00032E                     l4867:
  5746                           ;YellowFlash.C: 658: TMR0ON = 1;
  5747  00032E  8ED5               	bsf	c:(32431/8),(32431)&7	;volatile
  5748                           	line	660
  5749                           ;YellowFlash.C: 660: break;
  5750  000330  D0AA               	goto	l4925
  5751                           	line	662
  5752                           ;YellowFlash.C: 662: case 0x04:
  5753                           	
  5754  000332                     l573:
  5755                           	line	663
  5756                           ;YellowFlash.C: 663: yflash_status=CANRdata[1];
  5757  000332  C0C1  F042         	movff	0+(_CANRdata+01h),(c:_yflash_status)
  5758                           	line	664
  5759                           ;YellowFlash.C: 664: RD2=1;
  5760  000336  8483               	bsf	c:(31770/8),(31770)&7	;volatile
  5761                           	line	665
  5762                           	
  5763  000338                     l4869:
  5764                           ;YellowFlash.C: 665: Read_YFlash_CFG();
  5765  000338  EC9F  F009         	call	_Read_YFlash_CFG	;wreg free
  5766                           	line	666
  5767                           	
  5768  00033C                     l4871:
  5769                           ;YellowFlash.C: 666: T1CON |= 0x01;
  5770  00033C  80CD               	bsf	(0+(0/8)+(c:4045)),c,(0)&7	;volatile
  5771                           	line	667
  5772                           	
  5773  00033E                     l4873:
  5774                           ;YellowFlash.C: 667: turnoff=0x01;
  5775  00033E  0100               	movlb	0	; () banked
  5776  000340  6FE9               	movwf	(??_CANDATAAnalyzing+0+0)&0ffh
  5777  000342  0E01               	movlw	low(01h)
  5778  000344  6E4A               	movwf	((c:_turnoff)),c
  5779  000346  0100               	movlb	0	; () banked
  5780  000348  51E9               	movf	(??_CANDATAAnalyzing+0+0)&0ffh,w
  5781                           	line	668
  5782                           	
  5783  00034A                     l4875:
  5784                           ;YellowFlash.C: 668: switchmode=1;
  5785  00034A  0100               	movlb	(_switchmode/8) >> 8
  5786  00034C  824D               	bsf	(_switchmode/8),c,(_switchmode)&7
  5787                           	line	669
  5788                           	
  5789  00034E                     l4877:
  5790                           ;YellowFlash.C: 669: force_status=0x01;
  5791  00034E  0100               	movlb	0	; () banked
  5792  000350  6FE9               	movwf	(??_CANDATAAnalyzing+0+0)&0ffh
  5793  000352  0E01               	movlw	low(01h)
  5794  000354  6E3F               	movwf	((c:_force_status)),c
  5795  000356  0100               	movlb	0	; () banked
  5796  000358  51E9               	movf	(??_CANDATAAnalyzing+0+0)&0ffh,w
  5797                           	line	670
  5798                           	
  5799  00035A                     l4879:
  5800                           ;YellowFlash.C: 670: if(f_r_mod==0x01)
  5801  00035A  043E               	decf	((c:_f_r_mod)),c,w
  5802                           
  5803  00035C  A4D8               	btfss	status,2
  5804  00035E  D001               	goto	u3821
  5805  000360  D001               	goto	u3820
  5806  000362                     u3821:
  5807  000362  D091               	goto	l4925
  5808  000364                     u3820:
  5809                           	line	672
  5810                           	
  5811  000364                     l4881:
  5812                           ;YellowFlash.C: 671: {
  5813                           ;YellowFlash.C: 672: CANSdlc=4;
  5814  000364  0100               	movlb	0	; () banked
  5815  000366  6FE9               	movwf	(??_CANDATAAnalyzing+0+0)&0ffh
  5816  000368  0E04               	movlw	low(04h)
  5817  00036A  6E49               	movwf	((c:_CANSdlc)),c
  5818  00036C  0100               	movlb	0	; () banked
  5819  00036E  51E9               	movf	(??_CANDATAAnalyzing+0+0)&0ffh,w
  5820                           	line	673
  5821                           ;YellowFlash.C: 673: CANSdata[0]=0x02;
  5822  000370  0100               	movlb	0	; () banked
  5823  000372  6FE9               	movwf	(??_CANDATAAnalyzing+0+0)&0ffh
  5824  000374  0E02               	movlw	low(02h)
  5825  000376  0100               	movlb	0	; () banked
  5826  000378  0100               	movlb	0	; () banked
  5827  00037A  6FC8               	movwf	((_CANSdata))&0ffh
  5828  00037C  0100               	movlb	0	; () banked
  5829  00037E  51E9               	movf	(??_CANDATAAnalyzing+0+0)&0ffh,w
  5830                           	line	674
  5831                           	
  5832  000380                     l4883:
  5833                           ;YellowFlash.C: 674: CANSdata[1]=yflash_CFG[0];
  5834  000380  C047  F0C9         	movff	(c:_yflash_CFG),0+(_CANSdata+01h)
  5835                           	line	675
  5836                           	
  5837  000384                     l4885:
  5838                           ;YellowFlash.C: 675: CANSdata[2]=yflash_CFG[1];
  5839  000384  C048  F0CA         	movff	0+((c:_yflash_CFG)+01h),0+(_CANSdata+02h)
  5840                           	line	676
  5841                           	
  5842  000388                     l4887:
  5843                           ;YellowFlash.C: 676: CANSdata[3]=yflash_status;
  5844  000388  C042  F0CB         	movff	(c:_yflash_status),0+(_CANSdata+03h)
  5845                           	line	677
  5846                           	
  5847  00038C                     l4889:
  5848                           ;YellowFlash.C: 677: CANSend(CANSid,CANSdata,CANSdlc);
  5849  00038C  0100               	movlb	0	; () banked
  5850  00038E  0E00               	movlw	high(_CANSid)
  5851  000390  6E14               	movwf	((c:?_CANSend+1)),c
  5852  000392  0100               	movlb	0	; () banked
  5853  000394  0ED4               	movlw	low(_CANSid)
  5854  000396  6E13               	movwf	((c:?_CANSend)),c
  5855  000398  0100               	movlb	0	; () banked
  5856  00039A  0E00               	movlw	high(_CANSdata)
  5857  00039C  6E16               	movwf	(1+((c:?_CANSend)+02h)),c
  5858  00039E  0100               	movlb	0	; () banked
  5859  0003A0  0EC8               	movlw	low(_CANSdata)
  5860  0003A2  6E15               	movwf	(0+((c:?_CANSend)+02h)),c
  5861  0003A4  C049  F017         	movff	(c:_CANSdlc),0+((c:?_CANSend)+04h)
  5862  0003A8  EC14  F005         	call	_CANSend	;wreg free
  5863  0003AC  D06C               	goto	l4925
  5864                           	line	678
  5865                           	
  5866  0003AE                     l574:
  5867                           	line	679
  5868                           ;YellowFlash.C: 678: }
  5869                           ;YellowFlash.C: 679: break;
  5870  0003AE  D06B               	goto	l4925
  5871                           	line	681
  5872                           ;YellowFlash.C: 681: case 0x05:
  5873                           	
  5874  0003B0                     l575:
  5875                           	line	682
  5876                           	
  5877  0003B0                     l4891:
  5878                           ;YellowFlash.C: 682: yflash_status=0x00;
  5879  0003B0  0100               	movlb	0	; () banked
  5880  0003B2  6FE9               	movwf	(??_CANDATAAnalyzing+0+0)&0ffh
  5881  0003B4  0E00               	movlw	low(0)
  5882  0003B6  6E42               	movwf	((c:_yflash_status)),c
  5883  0003B8  0100               	movlb	0	; () banked
  5884  0003BA  51E9               	movf	(??_CANDATAAnalyzing+0+0)&0ffh,w
  5885                           	line	683
  5886                           ;YellowFlash.C: 683: force_status=0x00;
  5887  0003BC  0100               	movlb	0	; () banked
  5888  0003BE  6FE9               	movwf	(??_CANDATAAnalyzing+0+0)&0ffh
  5889  0003C0  0E00               	movlw	low(0)
  5890  0003C2  6E3F               	movwf	((c:_force_status)),c
  5891  0003C4  0100               	movlb	0	; () banked
  5892  0003C6  51E9               	movf	(??_CANDATAAnalyzing+0+0)&0ffh,w
  5893                           	line	684
  5894                           	
  5895  0003C8                     l4893:
  5896                           ;YellowFlash.C: 684: T1CON |= 0x00;
  5897  0003C8  50CD               	movf	((c:4045)),c,w	;volatile
  5898                           	line	685
  5899                           	
  5900  0003CA                     l4895:
  5901                           ;YellowFlash.C: 685: TMR0ON = 1;
  5902  0003CA  8ED5               	bsf	c:(32431/8),(32431)&7	;volatile
  5903                           	line	686
  5904                           	
  5905  0003CC                     l4897:
  5906                           ;YellowFlash.C: 686: turnoff=0x00;
  5907  0003CC  0100               	movlb	0	; () banked
  5908  0003CE  6FE9               	movwf	(??_CANDATAAnalyzing+0+0)&0ffh
  5909  0003D0  0E00               	movlw	low(0)
  5910  0003D2  6E4A               	movwf	((c:_turnoff)),c
  5911  0003D4  0100               	movlb	0	; () banked
  5912  0003D6  51E9               	movf	(??_CANDATAAnalyzing+0+0)&0ffh,w
  5913                           	line	687
  5914                           	
  5915  0003D8                     l4899:
  5916                           ;YellowFlash.C: 687: switchmode=0;
  5917  0003D8  0100               	movlb	(_switchmode/8) >> 8
  5918  0003DA  924D               	bcf	(_switchmode/8),c,(_switchmode)&7
  5919                           	line	688
  5920                           	
  5921  0003DC                     l4901:
  5922                           ;YellowFlash.C: 688: RC6=1;
  5923  0003DC  8C82               	bsf	c:(31766/8),(31766)&7	;volatile
  5924                           	line	689
  5925                           	
  5926  0003DE                     l4903:
  5927                           ;YellowFlash.C: 689: RC4=1;
  5928  0003DE  8882               	bsf	c:(31764/8),(31764)&7	;volatile
  5929                           	line	690
  5930                           	
  5931  0003E0                     l4905:
  5932                           ;YellowFlash.C: 690: RD3=1;
  5933  0003E0  8683               	bsf	c:(31771/8),(31771)&7	;volatile
  5934                           	line	691
  5935                           	
  5936  0003E2                     l4907:
  5937                           ;YellowFlash.C: 691: RD2=0;
  5938  0003E2  9483               	bcf	c:(31770/8),(31770)&7	;volatile
  5939                           	line	692
  5940                           	
  5941  0003E4                     l4909:
  5942                           ;YellowFlash.C: 692: if(f_r_mod==0x01)
  5943  0003E4  043E               	decf	((c:_f_r_mod)),c,w
  5944                           
  5945  0003E6  A4D8               	btfss	status,2
  5946  0003E8  D001               	goto	u3831
  5947  0003EA  D001               	goto	u3830
  5948  0003EC                     u3831:
  5949  0003EC  D04C               	goto	l4925
  5950  0003EE                     u3830:
  5951                           	line	694
  5952                           	
  5953  0003EE                     l4911:
  5954                           ;YellowFlash.C: 693: {
  5955                           ;YellowFlash.C: 694: CANSdlc=4;
  5956  0003EE  0100               	movlb	0	; () banked
  5957  0003F0  6FE9               	movwf	(??_CANDATAAnalyzing+0+0)&0ffh
  5958  0003F2  0E04               	movlw	low(04h)
  5959  0003F4  6E49               	movwf	((c:_CANSdlc)),c
  5960  0003F6  0100               	movlb	0	; () banked
  5961  0003F8  51E9               	movf	(??_CANDATAAnalyzing+0+0)&0ffh,w
  5962                           	line	695
  5963                           ;YellowFlash.C: 695: CANSdata[0]=0x02;
  5964  0003FA  0100               	movlb	0	; () banked
  5965  0003FC  6FE9               	movwf	(??_CANDATAAnalyzing+0+0)&0ffh
  5966  0003FE  0E02               	movlw	low(02h)
  5967  000400  0100               	movlb	0	; () banked
  5968  000402  0100               	movlb	0	; () banked
  5969  000404  6FC8               	movwf	((_CANSdata))&0ffh
  5970  000406  0100               	movlb	0	; () banked
  5971  000408  51E9               	movf	(??_CANDATAAnalyzing+0+0)&0ffh,w
  5972                           	line	696
  5973                           	
  5974  00040A                     l4913:
  5975                           ;YellowFlash.C: 696: CANSdata[1]=yflash_CFG[0];
  5976  00040A  C047  F0C9         	movff	(c:_yflash_CFG),0+(_CANSdata+01h)
  5977                           	line	697
  5978                           	
  5979  00040E                     l4915:
  5980                           ;YellowFlash.C: 697: CANSdata[2]=yflash_CFG[1];
  5981  00040E  C048  F0CA         	movff	0+((c:_yflash_CFG)+01h),0+(_CANSdata+02h)
  5982                           	line	698
  5983                           	
  5984  000412                     l4917:
  5985                           ;YellowFlash.C: 698: CANSdata[3]=yflash_status;
  5986  000412  C042  F0CB         	movff	(c:_yflash_status),0+(_CANSdata+03h)
  5987                           	line	699
  5988                           	
  5989  000416                     l4919:
  5990                           ;YellowFlash.C: 699: CANSend(CANSid,CANSdata,CANSdlc);
  5991  000416  0100               	movlb	0	; () banked
  5992  000418  0E00               	movlw	high(_CANSid)
  5993  00041A  6E14               	movwf	((c:?_CANSend+1)),c
  5994  00041C  0100               	movlb	0	; () banked
  5995  00041E  0ED4               	movlw	low(_CANSid)
  5996  000420  6E13               	movwf	((c:?_CANSend)),c
  5997  000422  0100               	movlb	0	; () banked
  5998  000424  0E00               	movlw	high(_CANSdata)
  5999  000426  6E16               	movwf	(1+((c:?_CANSend)+02h)),c
  6000  000428  0100               	movlb	0	; () banked
  6001  00042A  0EC8               	movlw	low(_CANSdata)
  6002  00042C  6E15               	movwf	(0+((c:?_CANSend)+02h)),c
  6003  00042E  C049  F017         	movff	(c:_CANSdlc),0+((c:?_CANSend)+04h)
  6004  000432  EC14  F005         	call	_CANSend	;wreg free
  6005  000436  D027               	goto	l4925
  6006                           	line	700
  6007                           	
  6008  000438                     l576:
  6009                           	line	701
  6010                           ;YellowFlash.C: 700: }
  6011                           ;YellowFlash.C: 701: break;
  6012  000438  D026               	goto	l4925
  6013                           	line	702
  6014                           ;YellowFlash.C: 702: default:
  6015                           	
  6016  00043A                     l577:
  6017                           	line	703
  6018                           ;YellowFlash.C: 703: break;
  6019  00043A  D025               	goto	l4925
  6020                           	line	707
  6021                           	
  6022  00043C                     l4921:
  6023                           ;YellowFlash.C: 707: }
  6024  00043C  D024               	goto	l4925
  6025                           	line	608
  6026                           	
  6027  00043E                     l565:
  6028                           	
  6029  00043E                     l4923:
  6030  00043E  C0E6  FFD9         	movff	(CANDATAAnalyzing@dat),fsr2l
  6031  000442  C0E7  FFDA         	movff	(CANDATAAnalyzing@dat+1),fsr2h
  6032  000446  50DF               	movf	indf2,w
  6033  000448  0B3F               	andlw	low(03Fh)
  6034  00044A  0100               	movlb	0	; () banked
  6035  00044C  6FE9               	movwf	(??_CANDATAAnalyzing+0+0)&0ffh
  6036  00044E  6BEA               	clrf	(??_CANDATAAnalyzing+0+0+1)&0ffh
  6037                           
  6038                           	; Switch on 2 bytes has been partitioned into a top level switch of size 1, and 1 sub-s
                                 witches
  6039                           ; Switch size 1, requested type "space"
  6040                           ; Number of cases is 1, Range of values is 0 to 0
  6041                           ; switch strategies available:
  6042                           ; Name         Instructions Cycles
  6043                           ; simple_byte            4     3 (average)
  6044                           ;	Chosen strategy is simple_byte
  6045                           
  6046  000450  0100               	movlb	0	; () banked
  6047  000452  51EA               	movf ??_CANDATAAnalyzing+0+1&0ffh,w
  6048  000454  0A00               	xorlw	0^0	; case 0
  6049  000456  B4D8               	skipnz
  6050  000458  D001               	goto	l5321
  6051  00045A  D015               	goto	l4925
  6052                           	
  6053  00045C                     l5321:; BSR set to: 0
  6054                           
  6055                           ; Switch size 1, requested type "space"
  6056                           ; Number of cases is 6, Range of values is 0 to 5
  6057                           ; switch strategies available:
  6058                           ; Name         Instructions Cycles
  6059                           ; simple_byte           19    10 (average)
  6060                           ;	Chosen strategy is simple_byte
  6061                           
  6062  00045C  0100               	movlb	0	; () banked
  6063  00045E  51E9               	movf ??_CANDATAAnalyzing+0+0&0ffh,w
  6064  000460  0A00               	xorlw	0^0	; case 0
  6065  000462  B4D8               	skipnz
  6066  000464  D6DF               	goto	l4821
  6067  000466  0A01               	xorlw	1^0	; case 1
  6068  000468  B4D8               	skipnz
  6069  00046A  D6EB               	goto	l4825
  6070  00046C  0A03               	xorlw	2^1	; case 2
  6071  00046E  B4D8               	skipnz
  6072  000470  D6ED               	goto	l4827
  6073  000472  0A01               	xorlw	3^2	; case 3
  6074  000474  B4D8               	skipnz
  6075  000476  D725               	goto	l4839
  6076  000478  0A07               	xorlw	4^3	; case 4
  6077  00047A  B4D8               	skipnz
  6078  00047C  D75A               	goto	l573
  6079  00047E  0A01               	xorlw	5^4	; case 5
  6080  000480  B4D8               	skipnz
  6081  000482  D796               	goto	l4891
  6082  000484  D000               	goto	l4925
  6083                           
  6084                           	line	707
  6085                           	
  6086  000486                     l568:
  6087                           	line	709
  6088                           	
  6089  000486                     l4925:
  6090                           ;YellowFlash.C: 709: master_time_cont = 0x00;
  6091  000486  0100               	movlb	0	; () banked
  6092  000488  6FE9               	movwf	(??_CANDATAAnalyzing+0+0)&0ffh
  6093  00048A  0E00               	movlw	low(0)
  6094  00048C  0100               	movlb	0	; () banked
  6095  00048E  0100               	movlb	0	; () banked
  6096  000490  6FBB               	movwf	((_master_time_cont))&0ffh
  6097  000492  0100               	movlb	0	; () banked
  6098  000494  51E9               	movf	(??_CANDATAAnalyzing+0+0)&0ffh,w
  6099                           	line	710
  6100                           ;YellowFlash.C: 710: sta = 0X03;
  6101  000496  0100               	movlb	0	; () banked
  6102  000498  6FE9               	movwf	(??_CANDATAAnalyzing+0+0)&0ffh
  6103  00049A  0E03               	movlw	low(03h)
  6104  00049C  0100               	movlb	0	; () banked
  6105  00049E  0100               	movlb	0	; () banked
  6106  0004A0  6FBE               	movwf	((_sta))&0ffh
  6107  0004A2  0100               	movlb	0	; () banked
  6108  0004A4  51E9               	movf	(??_CANDATAAnalyzing+0+0)&0ffh,w
  6109  0004A6  D000               	goto	l578
  6110                           	line	711
  6111                           	
  6112  0004A8                     l563:
  6113                           	line	713
  6114                           	
  6115  0004A8                     l578:
  6116  0004A8  0012               	return
  6117                           	opt stack 0
  6118                           GLOBAL	__end_of_CANDATAAnalyzing
  6119  0004AA                     	__end_of_CANDATAAnalyzing:
  6120                           	signat	_CANDATAAnalyzing,12408
  6121                           	global	_CANSendConfirm
  6122                           
  6123 ;; *************** function _CANSendConfirm *****************
  6124 ;; Defined at:
  6125 ;;		line 403 in file "E:\WorkSpace\YellowFlashingController20140317\YellowFlash.C"
  6126 ;; Parameters:    Size  Location     Type
  6127 ;;		None
  6128 ;; Auto vars:     Size  Location     Type
  6129 ;;  i               1   24[COMRAM] unsigned char 
  6130 ;; Return value:  Size  Location     Type
  6131 ;;		None               void
  6132 ;; Registers used:
  6133 ;;		wreg, fsr1l, fsr1h, fsr2l, fsr2h, status,2, status,0, prodl, prodh, cstack
  6134 ;; Tracked objects:
  6135 ;;		On entry : 0/0
  6136 ;;		On exit  : 0/0
  6137 ;;		Unchanged: 0/0
  6138 ;; Data sizes:     COMRAM   BANK0   BANK1   BANK2   BANK3   BANK4   BANK5   BANK6   BANK7   BANK8   BANK9  BANK10  BANK1
       1  BANK12  BANK13  BANK14
  6139 ;;      Params:         0       0       0       0       0       0       0       0       0       0       0       0       
       0       0       0       0
  6140 ;;      Locals:         1       0       0       0       0       0       0       0       0       0       0       0       
       0       0       0       0
  6141 ;;      Temps:          1       0       0       0       0       0       0       0       0       0       0       0       
       0       0       0       0
  6142 ;;      Totals:         2       0       0       0       0       0       0       0       0       0       0       0       
       0       0       0       0
  6143 ;;Total ram usage:        2 bytes
  6144 ;; Hardware stack levels used:    1
  6145 ;; Hardware stack levels required when called:    5
  6146 ;; This function calls:
  6147 ;;		_CANSend
  6148 ;; This function is called by:
  6149 ;;		_CANDATAAnalyzing
  6150 ;; This function uses a non-reentrant model
  6151 ;;
  6152                           psect	text13,class=CODE,space=0,reloc=2
  6153                           global __ptext13
  6154  0016C8                     __ptext13:
  6155                           psect	text13
  6156                           	file	"E:\WorkSpace\YellowFlashingController20140317\YellowFlash.C"
  6157                           	line	403
  6158                           	global	__size_of_CANSendConfirm
  6159  0000                     	__size_of_CANSendConfirm	equ	__end_of_CANSendConfirm-_CANSendConfirm
  6160                           	
  6161  0016C8                     _CANSendConfirm:
  6162                           	opt	stack 24
  6163                           	line	406
  6164                           	
  6165  0016C8                     l3913:
  6166                           ;YellowFlash.C: 404: unsigned char i;
  6167                           ;YellowFlash.C: 406: for(i=0;i<8;i++)
  6168  0016C8  6E18               	movwf	(??_CANSendConfirm+0+0)&0ffh,c
  6169  0016CA  0E00               	movlw	low(0)
  6170  0016CC  6E19               	movwf	((c:CANSendConfirm@i)),c
  6171  0016CE  5018               	movf	(??_CANSendConfirm+0+0)&0ffh,c,w
  6172                           	
  6173  0016D0                     l3915:
  6174  0016D0  0E07               	movlw	(08h-1)
  6175  0016D2  6419               	cpfsgt	((c:CANSendConfirm@i)),c
  6176  0016D4  D001               	goto	u2731
  6177  0016D6  D001               	goto	u2730
  6178  0016D8                     u2731:
  6179  0016D8  D002               	goto	l3919
  6180  0016DA                     u2730:
  6181  0016DA  D01D               	goto	l526
  6182                           	
  6183  0016DC                     l3917:
  6184  0016DC  D01C               	goto	l526
  6185                           	line	407
  6186                           	
  6187  0016DE                     l525:
  6188                           	line	408
  6189                           	
  6190  0016DE                     l3919:
  6191                           ;YellowFlash.C: 407: {
  6192                           ;YellowFlash.C: 408: CANSdata[i] = CANRdata[i];
  6193  0016DE  5019               	movf	((c:CANSendConfirm@i)),c,w
  6194  0016E0  0D01               	mullw	01h
  6195  0016E2  0100               	movlb	0	; () banked
  6196  0016E4  0EC0               	movlw	low(_CANRdata)
  6197  0016E6  24F3               	addwf	(prodl),c,w
  6198  0016E8  6ED9               	movwf	c:fsr2l
  6199  0016EA  6ADA               	clrf	1+c:fsr2l
  6200  0016EC  0100               	movlb	0	; () banked
  6201  0016EE  0E00               	movlw	high(_CANRdata)
  6202  0016F0  22DA               	addwfc	1+c:fsr2l
  6203  0016F2  5019               	movf	((c:CANSendConfirm@i)),c,w
  6204  0016F4  0D01               	mullw	01h
  6205  0016F6  0100               	movlb	0	; () banked
  6206  0016F8  0EC8               	movlw	low(_CANSdata)
  6207  0016FA  24F3               	addwf	(prodl),c,w
  6208  0016FC  6EE1               	movwf	c:fsr1l
  6209  0016FE  6AE2               	clrf	1+c:fsr1l
  6210  001700  0100               	movlb	0	; () banked
  6211  001702  0E00               	movlw	high(_CANSdata)
  6212  001704  22E2               	addwfc	1+c:fsr1l
  6213  001706  CFDF FFE7          	movff	indf2,indf1
  6214                           	line	406
  6215                           	
  6216  00170A                     l3921:
  6217  00170A  2A19               	incf	((c:CANSendConfirm@i)),c
  6218                           	
  6219  00170C                     l3923:
  6220  00170C  0E07               	movlw	(08h-1)
  6221  00170E  6419               	cpfsgt	((c:CANSendConfirm@i)),c
  6222  001710  D001               	goto	u2741
  6223  001712  D001               	goto	u2740
  6224  001714                     u2741:
  6225  001714  D7E4               	goto	l3919
  6226  001716                     u2740:
  6227                           	
  6228  001716                     l526:
  6229                           	line	410
  6230                           ;YellowFlash.C: 409: }
  6231                           ;YellowFlash.C: 410: CANSdlc = CANRdlc;
  6232  001716  C04B  F049         	movff	(c:_CANRdlc),(c:_CANSdlc)
  6233                           	line	411
  6234                           	
  6235  00171A                     l3925:
  6236                           ;YellowFlash.C: 411: CANSend(CANSid,CANSdata,CANSdlc);
  6237  00171A  0100               	movlb	0	; () banked
  6238  00171C  0E00               	movlw	high(_CANSid)
  6239  00171E  6E14               	movwf	((c:?_CANSend+1)),c
  6240  001720  0100               	movlb	0	; () banked
  6241  001722  0ED4               	movlw	low(_CANSid)
  6242  001724  6E13               	movwf	((c:?_CANSend)),c
  6243  001726  0100               	movlb	0	; () banked
  6244  001728  0E00               	movlw	high(_CANSdata)
  6245  00172A  6E16               	movwf	(1+((c:?_CANSend)+02h)),c
  6246  00172C  0100               	movlb	0	; () banked
  6247  00172E  0EC8               	movlw	low(_CANSdata)
  6248  001730  6E15               	movwf	(0+((c:?_CANSend)+02h)),c
  6249  001732  C049  F017         	movff	(c:_CANSdlc),0+((c:?_CANSend)+04h)
  6250  001736  EC14  F005         	call	_CANSend	;wreg free
  6251                           	line	412
  6252                           	
  6253  00173A                     l527:
  6254  00173A  0012               	return
  6255                           	opt stack 0
  6256                           GLOBAL	__end_of_CANSendConfirm
  6257  00173C                     	__end_of_CANSendConfirm:
  6258                           	signat	_CANSendConfirm,88
  6259                           	global	_CANWriteID
  6260                           
  6261 ;; *************** function _CANWriteID *****************
  6262 ;; Defined at:
  6263 ;;		line 434 in file "E:\WorkSpace\YellowFlashingController20140317\YellowFlash.C"
  6264 ;; Parameters:    Size  Location     Type
  6265 ;;  fm              1   26[COMRAM] unsigned char 
  6266 ;; Auto vars:     Size  Location     Type
  6267 ;;		None
  6268 ;; Return value:  Size  Location     Type
  6269 ;;		None               void
  6270 ;; Registers used:
  6271 ;;		wreg, fsr2l, fsr2h, status,2, status,0, cstack
  6272 ;; Tracked objects:
  6273 ;;		On entry : 0/0
  6274 ;;		On exit  : 0/0
  6275 ;;		Unchanged: 0/0
  6276 ;; Data sizes:     COMRAM   BANK0   BANK1   BANK2   BANK3   BANK4   BANK5   BANK6   BANK7   BANK8   BANK9  BANK10  BANK1
       1  BANK12  BANK13  BANK14
  6277 ;;      Params:         1       0       0       0       0       0       0       0       0       0       0       0       
       0       0       0       0
  6278 ;;      Locals:         0       0       0       0       0       0       0       0       0       0       0       0       
       0       0       0       0
  6279 ;;      Temps:          1       0       0       0       0       0       0       0       0       0       0       0       
       0       0       0       0
  6280 ;;      Totals:         2       0       0       0       0       0       0       0       0       0       0       0       
       0       0       0       0
  6281 ;;Total ram usage:        2 bytes
  6282 ;; Hardware stack levels used:    1
  6283 ;; Hardware stack levels required when called:    6
  6284 ;; This function calls:
  6285 ;;		_EEPROMWrite
  6286 ;;		_CANSendID
  6287 ;; This function is called by:
  6288 ;;		_CANDATAAnalyzing
  6289 ;; This function uses a non-reentrant model
  6290 ;;
  6291                           psect	text14,class=CODE,space=0,reloc=2
  6292                           global __ptext14
  6293  001984                     __ptext14:
  6294                           psect	text14
  6295                           	file	"E:\WorkSpace\YellowFlashingController20140317\YellowFlash.C"
  6296                           	line	434
  6297                           	global	__size_of_CANWriteID
  6298  0000                     	__size_of_CANWriteID	equ	__end_of_CANWriteID-_CANWriteID
  6299                           	
  6300  001984                     _CANWriteID:
  6301                           	opt	stack 23
  6302                           	line	435
  6303                           	
  6304  001984                     l3943:
  6305                           ;YellowFlash.C: 435: eeprom_addr = 0x0000;
  6306  001984  0E00               	movlw	high(0)
  6307  001986  6E44               	movwf	((c:_eeprom_addr+1)),c
  6308  001988  0E00               	movlw	low(0)
  6309  00198A  6E43               	movwf	((c:_eeprom_addr)),c
  6310                           	line	436
  6311                           	
  6312  00198C                     l3945:
  6313                           ;YellowFlash.C: 436: eeprom_num = 4;
  6314  00198C  6E1C               	movwf	(??_CANWriteID+0+0)&0ffh,c
  6315  00198E  0E04               	movlw	low(04h)
  6316  001990  6E4C               	movwf	((c:_eeprom_num)),c
  6317  001992  501C               	movf	(??_CANWriteID+0+0)&0ffh,c,w
  6318                           	line	437
  6319                           	
  6320  001994                     l3947:
  6321                           ;YellowFlash.C: 437: EEPROMWrite(&eeprom_addr,&eeprom_num,(CANRdata+1));
  6322  001994  0E00               	movlw	high((c:_eeprom_addr))
  6323  001996  6E14               	movwf	((c:?_EEPROMWrite+1)),c
  6324  001998  0E43               	movlw	low((c:_eeprom_addr))
  6325  00199A  6E13               	movwf	((c:?_EEPROMWrite)),c
  6326  00199C  0E00               	movlw	high((c:_eeprom_num))
  6327  00199E  6E16               	movwf	(1+((c:?_EEPROMWrite)+02h)),c
  6328  0019A0  0E4C               	movlw	low((c:_eeprom_num))
  6329  0019A2  6E15               	movwf	(0+((c:?_EEPROMWrite)+02h)),c
  6330  0019A4  0100               	movlb	0	; () banked
  6331  0019A6  0E00               	movlw	high(_CANRdata+01h)
  6332  0019A8  6E18               	movwf	(1+((c:?_EEPROMWrite)+04h)),c
  6333  0019AA  0100               	movlb	0	; () banked
  6334  0019AC  0EC1               	movlw	low(_CANRdata+01h)
  6335  0019AE  6E17               	movwf	(0+((c:?_EEPROMWrite)+04h)),c
  6336  0019B0  ECD7  F00B         	call	_EEPROMWrite	;wreg free
  6337                           	line	438
  6338                           	
  6339  0019B4                     l3949:
  6340                           ;YellowFlash.C: 438: if(fm==0x01)
  6341  0019B4  041B               	decf	((c:CANWriteID@fm)),c,w
  6342                           
  6343  0019B6  A4D8               	btfss	status,2
  6344  0019B8  D001               	goto	u2761
  6345  0019BA  D001               	goto	u2760
  6346  0019BC                     u2761:
  6347  0019BC  D007               	goto	l536
  6348  0019BE                     u2760:
  6349                           	line	440
  6350                           	
  6351  0019BE                     l3951:
  6352                           ;YellowFlash.C: 439: {
  6353                           ;YellowFlash.C: 440: CANSendID(0X01);
  6354  0019BE  6E1C               	movwf	(??_CANWriteID+0+0)&0ffh,c
  6355  0019C0  0E01               	movlw	low(01h)
  6356  0019C2  6E19               	movwf	((c:?_CANSendID)),c
  6357  0019C4  501C               	movf	(??_CANWriteID+0+0)&0ffh,c,w
  6358  0019C6  ECAE  F00A         	call	_CANSendID	;wreg free
  6359  0019CA  D000               	goto	l536
  6360                           	line	441
  6361                           	
  6362  0019CC                     l535:
  6363                           	line	442
  6364                           	
  6365  0019CC                     l536:
  6366  0019CC  0012               	return
  6367                           	opt stack 0
  6368                           GLOBAL	__end_of_CANWriteID
  6369  0019CE                     	__end_of_CANWriteID:
  6370                           	signat	_CANWriteID,4216
  6371                           	global	_CANSendID
  6372                           
  6373 ;; *************** function _CANSendID *****************
  6374 ;; Defined at:
  6375 ;;		line 416 in file "E:\WorkSpace\YellowFlashingController20140317\YellowFlash.C"
  6376 ;; Parameters:    Size  Location     Type
  6377 ;;  sm              1   24[COMRAM] unsigned char 
  6378 ;; Auto vars:     Size  Location     Type
  6379 ;;		None
  6380 ;; Return value:  Size  Location     Type
  6381 ;;		None               void
  6382 ;; Registers used:
  6383 ;;		wreg, fsr2l, fsr2h, status,2, status,0, cstack
  6384 ;; Tracked objects:
  6385 ;;		On entry : 0/0
  6386 ;;		On exit  : 0/0
  6387 ;;		Unchanged: 0/0
  6388 ;; Data sizes:     COMRAM   BANK0   BANK1   BANK2   BANK3   BANK4   BANK5   BANK6   BANK7   BANK8   BANK9  BANK10  BANK1
       1  BANK12  BANK13  BANK14
  6389 ;;      Params:         1       0       0       0       0       0       0       0       0       0       0       0       
       0       0       0       0
  6390 ;;      Locals:         0       0       0       0       0       0       0       0       0       0       0       0       
       0       0       0       0
  6391 ;;      Temps:          1       0       0       0       0       0       0       0       0       0       0       0       
       0       0       0       0
  6392 ;;      Totals:         2       0       0       0       0       0       0       0       0       0       0       0       
       0       0       0       0
  6393 ;;Total ram usage:        2 bytes
  6394 ;; Hardware stack levels used:    1
  6395 ;; Hardware stack levels required when called:    5
  6396 ;; This function calls:
  6397 ;;		_EEPROMRead
  6398 ;;		_CANSend
  6399 ;; This function is called by:
  6400 ;;		_CANWriteID
  6401 ;;		_CANDATAAnalyzing
  6402 ;; This function uses a non-reentrant model
  6403 ;;
  6404                           psect	text15,class=CODE,space=0,reloc=2
  6405                           global __ptext15
  6406  00155C                     __ptext15:
  6407                           psect	text15
  6408                           	file	"E:\WorkSpace\YellowFlashingController20140317\YellowFlash.C"
  6409                           	line	416
  6410                           	global	__size_of_CANSendID
  6411  0000                     	__size_of_CANSendID	equ	__end_of_CANSendID-_CANSendID
  6412                           	
  6413  00155C                     _CANSendID:
  6414                           	opt	stack 23
  6415                           	line	418
  6416                           	
  6417  00155C                     l3927:
  6418                           ;YellowFlash.C: 418: CANSdlc = 4 + 1;
  6419  00155C  6E1A               	movwf	(??_CANSendID+0+0)&0ffh,c
  6420  00155E  0E05               	movlw	low(05h)
  6421  001560  6E49               	movwf	((c:_CANSdlc)),c
  6422  001562  501A               	movf	(??_CANSendID+0+0)&0ffh,c,w
  6423                           	line	420
  6424                           	
  6425  001564                     l3929:
  6426                           ;YellowFlash.C: 420: if(sm == 0X00)
  6427  001564  6619               	tstfsz	((c:CANSendID@sm)),c
  6428  001566  D001               	goto	u2751
  6429  001568  D001               	goto	u2750
  6430  00156A                     u2751:
  6431  00156A  D007               	goto	l3933
  6432  00156C                     u2750:
  6433                           	line	421
  6434                           	
  6435  00156C                     l3931:
  6436                           ;YellowFlash.C: 421: CANSdata[0] = 0X00;
  6437  00156C  6E1A               	movwf	(??_CANSendID+0+0)&0ffh,c
  6438  00156E  0E00               	movlw	low(0)
  6439  001570  0100               	movlb	0	; () banked
  6440  001572  0100               	movlb	0	; () banked
  6441  001574  6FC8               	movwf	((_CANSdata))&0ffh
  6442  001576  501A               	movf	(??_CANSendID+0+0)&0ffh,c,w
  6443  001578  D007               	goto	l3935
  6444                           	line	422
  6445                           	
  6446  00157A                     l530:
  6447                           	line	423
  6448                           	
  6449  00157A                     l3933:
  6450                           ;YellowFlash.C: 422: else
  6451                           ;YellowFlash.C: 423: CANSdata[0] = 0X01;
  6452  00157A  6E1A               	movwf	(??_CANSendID+0+0)&0ffh,c
  6453  00157C  0E01               	movlw	low(01h)
  6454  00157E  0100               	movlb	0	; () banked
  6455  001580  0100               	movlb	0	; () banked
  6456  001582  6FC8               	movwf	((_CANSdata))&0ffh
  6457  001584  501A               	movf	(??_CANSendID+0+0)&0ffh,c,w
  6458  001586  D000               	goto	l3935
  6459                           	
  6460  001588                     l531:
  6461                           	line	426
  6462                           	
  6463  001588                     l3935:
  6464                           ;YellowFlash.C: 426: eeprom_addr = 0x0000;
  6465  001588  0E00               	movlw	high(0)
  6466  00158A  6E44               	movwf	((c:_eeprom_addr+1)),c
  6467  00158C  0E00               	movlw	low(0)
  6468  00158E  6E43               	movwf	((c:_eeprom_addr)),c
  6469                           	line	427
  6470                           	
  6471  001590                     l3937:
  6472                           ;YellowFlash.C: 427: eeprom_num = 4;
  6473  001590  6E1A               	movwf	(??_CANSendID+0+0)&0ffh,c
  6474  001592  0E04               	movlw	low(04h)
  6475  001594  6E4C               	movwf	((c:_eeprom_num)),c
  6476  001596  501A               	movf	(??_CANSendID+0+0)&0ffh,c,w
  6477                           	line	428
  6478                           	
  6479  001598                     l3939:
  6480                           ;YellowFlash.C: 428: EEPROMRead(&eeprom_addr,&eeprom_num,(CANSdata+1));
  6481  001598  0E00               	movlw	high((c:_eeprom_addr))
  6482  00159A  6E14               	movwf	((c:?_EEPROMRead+1)),c
  6483  00159C  0E43               	movlw	low((c:_eeprom_addr))
  6484  00159E  6E13               	movwf	((c:?_EEPROMRead)),c
  6485  0015A0  0E00               	movlw	high((c:_eeprom_num))
  6486  0015A2  6E16               	movwf	(1+((c:?_EEPROMRead)+02h)),c
  6487  0015A4  0E4C               	movlw	low((c:_eeprom_num))
  6488  0015A6  6E15               	movwf	(0+((c:?_EEPROMRead)+02h)),c
  6489  0015A8  0100               	movlb	0	; () banked
  6490  0015AA  0E00               	movlw	high(_CANSdata+01h)
  6491  0015AC  6E18               	movwf	(1+((c:?_EEPROMRead)+04h)),c
  6492  0015AE  0100               	movlb	0	; () banked
  6493  0015B0  0EC9               	movlw	low(_CANSdata+01h)
  6494  0015B2  6E17               	movwf	(0+((c:?_EEPROMRead)+04h)),c
  6495  0015B4  EC74  F00C         	call	_EEPROMRead	;wreg free
  6496                           	line	429
  6497                           	
  6498  0015B8                     l3941:
  6499                           ;YellowFlash.C: 429: CANSend(CANSid,CANSdata,CANSdlc);
  6500  0015B8  0100               	movlb	0	; () banked
  6501  0015BA  0E00               	movlw	high(_CANSid)
  6502  0015BC  6E14               	movwf	((c:?_CANSend+1)),c
  6503  0015BE  0100               	movlb	0	; () banked
  6504  0015C0  0ED4               	movlw	low(_CANSid)
  6505  0015C2  6E13               	movwf	((c:?_CANSend)),c
  6506  0015C4  0100               	movlb	0	; () banked
  6507  0015C6  0E00               	movlw	high(_CANSdata)
  6508  0015C8  6E16               	movwf	(1+((c:?_CANSend)+02h)),c
  6509  0015CA  0100               	movlb	0	; () banked
  6510  0015CC  0EC8               	movlw	low(_CANSdata)
  6511  0015CE  6E15               	movwf	(0+((c:?_CANSend)+02h)),c
  6512  0015D0  C049  F017         	movff	(c:_CANSdlc),0+((c:?_CANSend)+04h)
  6513  0015D4  EC14  F005         	call	_CANSend	;wreg free
  6514                           	line	430
  6515                           	
  6516  0015D8                     l532:
  6517  0015D8  0012               	return
  6518                           	opt stack 0
  6519                           GLOBAL	__end_of_CANSendID
  6520  0015DA                     	__end_of_CANSendID:
  6521                           	signat	_CANSendID,4216
  6522                           	global	_CANSend
  6523                           
  6524 ;; *************** function _CANSend *****************
  6525 ;; Defined at:
  6526 ;;		line 163 in file "E:\WorkSpace\YellowFlashingController20140317\CAN.H"
  6527 ;; Parameters:    Size  Location     Type
  6528 ;;  id              2   18[COMRAM] PTR unsigned char 
  6529 ;;		 -> CANSid(4), 
  6530 ;;  dat             2   20[COMRAM] PTR unsigned char 
  6531 ;;		 -> CANSdata(8), 
  6532 ;;  dlc             1   22[COMRAM] unsigned char 
  6533 ;; Auto vars:     Size  Location     Type
  6534 ;;		None
  6535 ;; Return value:  Size  Location     Type
  6536 ;;                  1    wreg      unsigned char 
  6537 ;; Registers used:
  6538 ;;		wreg, fsr2l, fsr2h, status,2, status,0
  6539 ;; Tracked objects:
  6540 ;;		On entry : F/0
  6541 ;;		On exit  : 0/0
  6542 ;;		Unchanged: 0/0
  6543 ;; Data sizes:     COMRAM   BANK0   BANK1   BANK2   BANK3   BANK4   BANK5   BANK6   BANK7   BANK8   BANK9  BANK10  BANK1
       1  BANK12  BANK13  BANK14
  6544 ;;      Params:         5       0       0       0       0       0       0       0       0       0       0       0       
       0       0       0       0
  6545 ;;      Locals:         0       0       0       0       0       0       0       0       0       0       0       0       
       0       0       0       0
  6546 ;;      Temps:          0       0       0       0       0       0       0       0       0       0       0       0       
       0       0       0       0
  6547 ;;      Totals:         5       0       0       0       0       0       0       0       0       0       0       0       
       0       0       0       0
  6548 ;;Total ram usage:        5 bytes
  6549 ;; Hardware stack levels used:    1
  6550 ;; Hardware stack levels required when called:    4
  6551 ;; This function calls:
  6552 ;;		Nothing
  6553 ;; This function is called by:
  6554 ;;		_CANSendConfirm
  6555 ;;		_CANSendID
  6556 ;;		_CANDATAAnalyzing
  6557 ;;		_CANSendTest
  6558 ;; This function uses a non-reentrant model
  6559 ;;
  6560                           psect	text16,class=CODE,space=0,reloc=2
  6561                           global __ptext16
  6562  000A28                     __ptext16:
  6563                           psect	text16
  6564                           	file	"E:\WorkSpace\YellowFlashingController20140317\CAN.H"
  6565                           	line	163
  6566                           	global	__size_of_CANSend
  6567  0000                     	__size_of_CANSend	equ	__end_of_CANSend-_CANSend
  6568                           	
  6569  000A28                     _CANSend:
  6570                           	opt	stack 25
  6571                           	line	165
  6572                           	
  6573  000A28                     l3599:; BSR set to: 0
  6574                           
  6575                           ;CAN.H: 165: if(!(TXB0CON & 0x80))
  6576  000A28  010F               	movlb	15	; () banked
  6577                           	
  6578  000A2A  010F               	movlb	15	; () banked
  6579  000A2C  BF20               	btfsc	((3872))&0ffh,(7)&7	;volatile
  6580  000A2E  D001               	goto	u2501
  6581  000A30  D001               	goto	u2500
  6582  000A32                     u2501:
  6583  000A32  D05C               	goto	l345
  6584  000A34                     u2500:
  6585                           	line	176
  6586                           	
  6587  000A34                     l3601:
  6588                           ;CAN.H: 166: {
  6589                           ;CAN.H: 176: TXB0DLC = dlc;
  6590  000A34  C017  FF25         	movff	(c:CANSend@dlc),(3877)	;volatile
  6591                           	line	179
  6592                           	
  6593  000A38                     l3603:
  6594                           ;CAN.H: 179: TXB0D0 = dat[0];
  6595  000A38  C015  FFD9         	movff	(c:CANSend@dat),fsr2l
  6596  000A3C  C016  FFDA         	movff	(c:CANSend@dat+1),fsr2h
  6597  000A40  50DF               	movf	indf2,w
  6598  000A42  010F               	movlb	15	; () banked
  6599  000A44  010F               	movlb	15	; () banked
  6600  000A46  6F26               	movwf	((3878))&0ffh	;volatile
  6601                           	line	180
  6602                           	
  6603  000A48                     l3605:
  6604                           ;CAN.H: 180: TXB0D1 = dat[1];
  6605  000A48  EE20 F001          	lfsr	2,01h
  6606  000A4C  5015               	movf	((c:CANSend@dat)),c,w
  6607  000A4E  26D9               	addwf	fsr2l
  6608  000A50  5016               	movf	((c:CANSend@dat+1)),c,w
  6609  000A52  22DA               	addwfc	fsr2h
  6610  000A54  50DF               	movf	indf2,w
  6611  000A56  010F               	movlb	15	; () banked
  6612  000A58  010F               	movlb	15	; () banked
  6613  000A5A  6F27               	movwf	((3879))&0ffh	;volatile
  6614                           	line	181
  6615                           	
  6616  000A5C                     l3607:
  6617                           ;CAN.H: 181: TXB0D2 = dat[2];
  6618  000A5C  EE20 F002          	lfsr	2,02h
  6619  000A60  5015               	movf	((c:CANSend@dat)),c,w
  6620  000A62  26D9               	addwf	fsr2l
  6621  000A64  5016               	movf	((c:CANSend@dat+1)),c,w
  6622  000A66  22DA               	addwfc	fsr2h
  6623  000A68  50DF               	movf	indf2,w
  6624  000A6A  010F               	movlb	15	; () banked
  6625  000A6C  010F               	movlb	15	; () banked
  6626  000A6E  6F28               	movwf	((3880))&0ffh	;volatile
  6627                           	line	182
  6628                           	
  6629  000A70                     l3609:
  6630                           ;CAN.H: 182: TXB0D3 = dat[3];
  6631  000A70  EE20 F003          	lfsr	2,03h
  6632  000A74  5015               	movf	((c:CANSend@dat)),c,w
  6633  000A76  26D9               	addwf	fsr2l
  6634  000A78  5016               	movf	((c:CANSend@dat+1)),c,w
  6635  000A7A  22DA               	addwfc	fsr2h
  6636  000A7C  50DF               	movf	indf2,w
  6637  000A7E  010F               	movlb	15	; () banked
  6638  000A80  010F               	movlb	15	; () banked
  6639  000A82  6F29               	movwf	((3881))&0ffh	;volatile
  6640                           	line	183
  6641                           	
  6642  000A84                     l3611:
  6643                           ;CAN.H: 183: TXB0D4 = dat[4];
  6644  000A84  EE20 F004          	lfsr	2,04h
  6645  000A88  5015               	movf	((c:CANSend@dat)),c,w
  6646  000A8A  26D9               	addwf	fsr2l
  6647  000A8C  5016               	movf	((c:CANSend@dat+1)),c,w
  6648  000A8E  22DA               	addwfc	fsr2h
  6649  000A90  50DF               	movf	indf2,w
  6650  000A92  010F               	movlb	15	; () banked
  6651  000A94  010F               	movlb	15	; () banked
  6652  000A96  6F2A               	movwf	((3882))&0ffh	;volatile
  6653                           	line	184
  6654                           	
  6655  000A98                     l3613:
  6656                           ;CAN.H: 184: TXB0D5 = dat[5];
  6657  000A98  EE20 F005          	lfsr	2,05h
  6658  000A9C  5015               	movf	((c:CANSend@dat)),c,w
  6659  000A9E  26D9               	addwf	fsr2l
  6660  000AA0  5016               	movf	((c:CANSend@dat+1)),c,w
  6661  000AA2  22DA               	addwfc	fsr2h
  6662  000AA4  50DF               	movf	indf2,w
  6663  000AA6  010F               	movlb	15	; () banked
  6664  000AA8  010F               	movlb	15	; () banked
  6665  000AAA  6F2B               	movwf	((3883))&0ffh	;volatile
  6666                           	line	185
  6667                           	
  6668  000AAC                     l3615:
  6669                           ;CAN.H: 185: TXB0D6 = dat[6];
  6670  000AAC  EE20 F006          	lfsr	2,06h
  6671  000AB0  5015               	movf	((c:CANSend@dat)),c,w
  6672  000AB2  26D9               	addwf	fsr2l
  6673  000AB4  5016               	movf	((c:CANSend@dat+1)),c,w
  6674  000AB6  22DA               	addwfc	fsr2h
  6675  000AB8  50DF               	movf	indf2,w
  6676  000ABA  010F               	movlb	15	; () banked
  6677  000ABC  010F               	movlb	15	; () banked
  6678  000ABE  6F2C               	movwf	((3884))&0ffh	;volatile
  6679                           	line	186
  6680                           	
  6681  000AC0                     l3617:
  6682                           ;CAN.H: 186: TXB0D7 = dat[7];
  6683  000AC0  EE20 F007          	lfsr	2,07h
  6684  000AC4  5015               	movf	((c:CANSend@dat)),c,w
  6685  000AC6  26D9               	addwf	fsr2l
  6686  000AC8  5016               	movf	((c:CANSend@dat+1)),c,w
  6687  000ACA  22DA               	addwfc	fsr2h
  6688  000ACC  50DF               	movf	indf2,w
  6689  000ACE  010F               	movlb	15	; () banked
  6690  000AD0  010F               	movlb	15	; () banked
  6691  000AD2  6F2D               	movwf	((3885))&0ffh	;volatile
  6692                           	line	189
  6693                           	
  6694  000AD4                     l3619:
  6695                           ;CAN.H: 189: TXB0CON |= 0x08;
  6696  000AD4  010F               	movlb	15	; () banked
  6697  000AD6  010F               	movlb	15	; () banked
  6698  000AD8  8720               	bsf	(0+(3/8)+(3872))&0ffh,(3)&7	;volatile
  6699                           	line	190
  6700                           ;CAN.H: 190: while(TXB0CON&0x08);
  6701  000ADA  D000               	goto	l346
  6702                           	
  6703  000ADC                     l347:
  6704                           	
  6705  000ADC                     l346:
  6706  000ADC  010F               	movlb	15	; () banked
  6707                           	
  6708  000ADE  010F               	movlb	15	; () banked
  6709  000AE0  B720               	btfsc	((3872))&0ffh,(3)&7	;volatile
  6710  000AE2  D001               	goto	u2511
  6711  000AE4  D001               	goto	u2510
  6712  000AE6                     u2511:
  6713  000AE6  D7FA               	goto	l346
  6714  000AE8                     u2510:
  6715  000AE8  D0C5               	goto	l349
  6716                           	
  6717  000AEA                     l348:
  6718                           	line	191
  6719                           ;CAN.H: 191: return 0;
  6720                           ;	Return value of _CANSend is never used
  6721  000AEA  D0C4               	goto	l349
  6722                           	line	192
  6723                           	
  6724  000AEC                     l345:
  6725                           	line	194
  6726                           ;CAN.H: 192: }
  6727                           ;CAN.H: 194: if(!(TXB1CON & 0x80))
  6728  000AEC  010F               	movlb	15	; () banked
  6729                           	
  6730  000AEE  010F               	movlb	15	; () banked
  6731  000AF0  BF10               	btfsc	((3856))&0ffh,(7)&7	;volatile
  6732  000AF2  D001               	goto	u2521
  6733  000AF4  D001               	goto	u2520
  6734  000AF6                     u2521:
  6735  000AF6  D05C               	goto	l350
  6736  000AF8                     u2520:
  6737                           	line	205
  6738                           	
  6739  000AF8                     l3621:
  6740                           ;CAN.H: 195: {
  6741                           ;CAN.H: 205: TXB1DLC = dlc;
  6742  000AF8  C017  FF15         	movff	(c:CANSend@dlc),(3861)	;volatile
  6743                           	line	208
  6744                           	
  6745  000AFC                     l3623:
  6746                           ;CAN.H: 208: TXB1D0 = dat[0];
  6747  000AFC  C015  FFD9         	movff	(c:CANSend@dat),fsr2l
  6748  000B00  C016  FFDA         	movff	(c:CANSend@dat+1),fsr2h
  6749  000B04  50DF               	movf	indf2,w
  6750  000B06  010F               	movlb	15	; () banked
  6751  000B08  010F               	movlb	15	; () banked
  6752  000B0A  6F16               	movwf	((3862))&0ffh	;volatile
  6753                           	line	209
  6754                           	
  6755  000B0C                     l3625:
  6756                           ;CAN.H: 209: TXB1D1 = dat[1];
  6757  000B0C  EE20 F001          	lfsr	2,01h
  6758  000B10  5015               	movf	((c:CANSend@dat)),c,w
  6759  000B12  26D9               	addwf	fsr2l
  6760  000B14  5016               	movf	((c:CANSend@dat+1)),c,w
  6761  000B16  22DA               	addwfc	fsr2h
  6762  000B18  50DF               	movf	indf2,w
  6763  000B1A  010F               	movlb	15	; () banked
  6764  000B1C  010F               	movlb	15	; () banked
  6765  000B1E  6F17               	movwf	((3863))&0ffh	;volatile
  6766                           	line	210
  6767                           	
  6768  000B20                     l3627:
  6769                           ;CAN.H: 210: TXB1D2 = dat[2];
  6770  000B20  EE20 F002          	lfsr	2,02h
  6771  000B24  5015               	movf	((c:CANSend@dat)),c,w
  6772  000B26  26D9               	addwf	fsr2l
  6773  000B28  5016               	movf	((c:CANSend@dat+1)),c,w
  6774  000B2A  22DA               	addwfc	fsr2h
  6775  000B2C  50DF               	movf	indf2,w
  6776  000B2E  010F               	movlb	15	; () banked
  6777  000B30  010F               	movlb	15	; () banked
  6778  000B32  6F18               	movwf	((3864))&0ffh	;volatile
  6779                           	line	211
  6780                           	
  6781  000B34                     l3629:
  6782                           ;CAN.H: 211: TXB1D3 = dat[3];
  6783  000B34  EE20 F003          	lfsr	2,03h
  6784  000B38  5015               	movf	((c:CANSend@dat)),c,w
  6785  000B3A  26D9               	addwf	fsr2l
  6786  000B3C  5016               	movf	((c:CANSend@dat+1)),c,w
  6787  000B3E  22DA               	addwfc	fsr2h
  6788  000B40  50DF               	movf	indf2,w
  6789  000B42  010F               	movlb	15	; () banked
  6790  000B44  010F               	movlb	15	; () banked
  6791  000B46  6F19               	movwf	((3865))&0ffh	;volatile
  6792                           	line	212
  6793                           	
  6794  000B48                     l3631:
  6795                           ;CAN.H: 212: TXB1D4 = dat[4];
  6796  000B48  EE20 F004          	lfsr	2,04h
  6797  000B4C  5015               	movf	((c:CANSend@dat)),c,w
  6798  000B4E  26D9               	addwf	fsr2l
  6799  000B50  5016               	movf	((c:CANSend@dat+1)),c,w
  6800  000B52  22DA               	addwfc	fsr2h
  6801  000B54  50DF               	movf	indf2,w
  6802  000B56  010F               	movlb	15	; () banked
  6803  000B58  010F               	movlb	15	; () banked
  6804  000B5A  6F1A               	movwf	((3866))&0ffh	;volatile
  6805                           	line	213
  6806                           	
  6807  000B5C                     l3633:
  6808                           ;CAN.H: 213: TXB1D5 = dat[5];
  6809  000B5C  EE20 F005          	lfsr	2,05h
  6810  000B60  5015               	movf	((c:CANSend@dat)),c,w
  6811  000B62  26D9               	addwf	fsr2l
  6812  000B64  5016               	movf	((c:CANSend@dat+1)),c,w
  6813  000B66  22DA               	addwfc	fsr2h
  6814  000B68  50DF               	movf	indf2,w
  6815  000B6A  010F               	movlb	15	; () banked
  6816  000B6C  010F               	movlb	15	; () banked
  6817  000B6E  6F1B               	movwf	((3867))&0ffh	;volatile
  6818                           	line	214
  6819                           	
  6820  000B70                     l3635:
  6821                           ;CAN.H: 214: TXB1D6 = dat[6];
  6822  000B70  EE20 F006          	lfsr	2,06h
  6823  000B74  5015               	movf	((c:CANSend@dat)),c,w
  6824  000B76  26D9               	addwf	fsr2l
  6825  000B78  5016               	movf	((c:CANSend@dat+1)),c,w
  6826  000B7A  22DA               	addwfc	fsr2h
  6827  000B7C  50DF               	movf	indf2,w
  6828  000B7E  010F               	movlb	15	; () banked
  6829  000B80  010F               	movlb	15	; () banked
  6830  000B82  6F1C               	movwf	((3868))&0ffh	;volatile
  6831                           	line	215
  6832                           	
  6833  000B84                     l3637:
  6834                           ;CAN.H: 215: TXB1D7 = dat[7];
  6835  000B84  EE20 F007          	lfsr	2,07h
  6836  000B88  5015               	movf	((c:CANSend@dat)),c,w
  6837  000B8A  26D9               	addwf	fsr2l
  6838  000B8C  5016               	movf	((c:CANSend@dat+1)),c,w
  6839  000B8E  22DA               	addwfc	fsr2h
  6840  000B90  50DF               	movf	indf2,w
  6841  000B92  010F               	movlb	15	; () banked
  6842  000B94  010F               	movlb	15	; () banked
  6843  000B96  6F1D               	movwf	((3869))&0ffh	;volatile
  6844                           	line	218
  6845                           	
  6846  000B98                     l3639:
  6847                           ;CAN.H: 218: TXB0CON |= 0x08;
  6848  000B98  010F               	movlb	15	; () banked
  6849  000B9A  010F               	movlb	15	; () banked
  6850  000B9C  8720               	bsf	(0+(3/8)+(3872))&0ffh,(3)&7	;volatile
  6851                           	line	219
  6852                           ;CAN.H: 219: while(TXB0CON&0x08);
  6853  000B9E  D000               	goto	l351
  6854                           	
  6855  000BA0                     l352:
  6856                           	
  6857  000BA0                     l351:
  6858  000BA0  010F               	movlb	15	; () banked
  6859                           	
  6860  000BA2  010F               	movlb	15	; () banked
  6861  000BA4  B720               	btfsc	((3872))&0ffh,(3)&7	;volatile
  6862  000BA6  D001               	goto	u2531
  6863  000BA8  D001               	goto	u2530
  6864  000BAA                     u2531:
  6865  000BAA  D7FA               	goto	l351
  6866  000BAC                     u2530:
  6867  000BAC  D063               	goto	l349
  6868                           	
  6869  000BAE                     l353:
  6870                           	line	220
  6871                           ;CAN.H: 220: return 1;
  6872                           ;	Return value of _CANSend is never used
  6873  000BAE  D062               	goto	l349
  6874                           	line	221
  6875                           	
  6876  000BB0                     l350:
  6877                           	line	223
  6878                           ;CAN.H: 221: }
  6879                           ;CAN.H: 223: if(!(TXB2CON & 0x80))
  6880  000BB0  010F               	movlb	15	; () banked
  6881                           	
  6882  000BB2  010F               	movlb	15	; () banked
  6883  000BB4  BF00               	btfsc	((3840))&0ffh,(7)&7	;volatile
  6884  000BB6  D001               	goto	u2541
  6885  000BB8  D001               	goto	u2540
  6886  000BBA                     u2541:
  6887  000BBA  D05C               	goto	l349
  6888  000BBC                     u2540:
  6889                           	line	234
  6890                           	
  6891  000BBC                     l3641:
  6892                           ;CAN.H: 224: {
  6893                           ;CAN.H: 234: TXB2DLC = dlc;
  6894  000BBC  C017  FF05         	movff	(c:CANSend@dlc),(3845)	;volatile
  6895                           	line	237
  6896                           	
  6897  000BC0                     l3643:
  6898                           ;CAN.H: 237: TXB2D0 = dat[0];
  6899  000BC0  C015  FFD9         	movff	(c:CANSend@dat),fsr2l
  6900  000BC4  C016  FFDA         	movff	(c:CANSend@dat+1),fsr2h
  6901  000BC8  50DF               	movf	indf2,w
  6902  000BCA  010F               	movlb	15	; () banked
  6903  000BCC  010F               	movlb	15	; () banked
  6904  000BCE  6F06               	movwf	((3846))&0ffh	;volatile
  6905                           	line	238
  6906                           	
  6907  000BD0                     l3645:
  6908                           ;CAN.H: 238: TXB2D1 = dat[1];
  6909  000BD0  EE20 F001          	lfsr	2,01h
  6910  000BD4  5015               	movf	((c:CANSend@dat)),c,w
  6911  000BD6  26D9               	addwf	fsr2l
  6912  000BD8  5016               	movf	((c:CANSend@dat+1)),c,w
  6913  000BDA  22DA               	addwfc	fsr2h
  6914  000BDC  50DF               	movf	indf2,w
  6915  000BDE  010F               	movlb	15	; () banked
  6916  000BE0  010F               	movlb	15	; () banked
  6917  000BE2  6F07               	movwf	((3847))&0ffh	;volatile
  6918                           	line	239
  6919                           	
  6920  000BE4                     l3647:
  6921                           ;CAN.H: 239: TXB2D2 = dat[2];
  6922  000BE4  EE20 F002          	lfsr	2,02h
  6923  000BE8  5015               	movf	((c:CANSend@dat)),c,w
  6924  000BEA  26D9               	addwf	fsr2l
  6925  000BEC  5016               	movf	((c:CANSend@dat+1)),c,w
  6926  000BEE  22DA               	addwfc	fsr2h
  6927  000BF0  50DF               	movf	indf2,w
  6928  000BF2  010F               	movlb	15	; () banked
  6929  000BF4  010F               	movlb	15	; () banked
  6930  000BF6  6F08               	movwf	((3848))&0ffh	;volatile
  6931                           	line	240
  6932                           	
  6933  000BF8                     l3649:
  6934                           ;CAN.H: 240: TXB2D3 = dat[3];
  6935  000BF8  EE20 F003          	lfsr	2,03h
  6936  000BFC  5015               	movf	((c:CANSend@dat)),c,w
  6937  000BFE  26D9               	addwf	fsr2l
  6938  000C00  5016               	movf	((c:CANSend@dat+1)),c,w
  6939  000C02  22DA               	addwfc	fsr2h
  6940  000C04  50DF               	movf	indf2,w
  6941  000C06  010F               	movlb	15	; () banked
  6942  000C08  010F               	movlb	15	; () banked
  6943  000C0A  6F09               	movwf	((3849))&0ffh	;volatile
  6944                           	line	241
  6945                           	
  6946  000C0C                     l3651:
  6947                           ;CAN.H: 241: TXB2D4 = dat[4];
  6948  000C0C  EE20 F004          	lfsr	2,04h
  6949  000C10  5015               	movf	((c:CANSend@dat)),c,w
  6950  000C12  26D9               	addwf	fsr2l
  6951  000C14  5016               	movf	((c:CANSend@dat+1)),c,w
  6952  000C16  22DA               	addwfc	fsr2h
  6953  000C18  50DF               	movf	indf2,w
  6954  000C1A  010F               	movlb	15	; () banked
  6955  000C1C  010F               	movlb	15	; () banked
  6956  000C1E  6F0A               	movwf	((3850))&0ffh	;volatile
  6957                           	line	242
  6958                           	
  6959  000C20                     l3653:
  6960                           ;CAN.H: 242: TXB2D5 = dat[5];
  6961  000C20  EE20 F005          	lfsr	2,05h
  6962  000C24  5015               	movf	((c:CANSend@dat)),c,w
  6963  000C26  26D9               	addwf	fsr2l
  6964  000C28  5016               	movf	((c:CANSend@dat+1)),c,w
  6965  000C2A  22DA               	addwfc	fsr2h
  6966  000C2C  50DF               	movf	indf2,w
  6967  000C2E  010F               	movlb	15	; () banked
  6968  000C30  010F               	movlb	15	; () banked
  6969  000C32  6F0B               	movwf	((3851))&0ffh	;volatile
  6970                           	line	243
  6971                           	
  6972  000C34                     l3655:
  6973                           ;CAN.H: 243: TXB2D6 = dat[6];
  6974  000C34  EE20 F006          	lfsr	2,06h
  6975  000C38  5015               	movf	((c:CANSend@dat)),c,w
  6976  000C3A  26D9               	addwf	fsr2l
  6977  000C3C  5016               	movf	((c:CANSend@dat+1)),c,w
  6978  000C3E  22DA               	addwfc	fsr2h
  6979  000C40  50DF               	movf	indf2,w
  6980  000C42  010F               	movlb	15	; () banked
  6981  000C44  010F               	movlb	15	; () banked
  6982  000C46  6F0C               	movwf	((3852))&0ffh	;volatile
  6983                           	line	244
  6984                           	
  6985  000C48                     l3657:
  6986                           ;CAN.H: 244: TXB2D7 = dat[7];
  6987  000C48  EE20 F007          	lfsr	2,07h
  6988  000C4C  5015               	movf	((c:CANSend@dat)),c,w
  6989  000C4E  26D9               	addwf	fsr2l
  6990  000C50  5016               	movf	((c:CANSend@dat+1)),c,w
  6991  000C52  22DA               	addwfc	fsr2h
  6992  000C54  50DF               	movf	indf2,w
  6993  000C56  010F               	movlb	15	; () banked
  6994  000C58  010F               	movlb	15	; () banked
  6995  000C5A  6F0D               	movwf	((3853))&0ffh	;volatile
  6996                           	line	247
  6997                           	
  6998  000C5C                     l3659:
  6999                           ;CAN.H: 247: TXB2CON |= 0x08;
  7000  000C5C  010F               	movlb	15	; () banked
  7001  000C5E  010F               	movlb	15	; () banked
  7002  000C60  8700               	bsf	(0+(3/8)+(3840))&0ffh,(3)&7	;volatile
  7003                           	line	248
  7004                           ;CAN.H: 248: while(TXB2CON&0x08);
  7005  000C62  D000               	goto	l355
  7006                           	
  7007  000C64                     l356:
  7008                           	
  7009  000C64                     l355:
  7010  000C64  010F               	movlb	15	; () banked
  7011                           	
  7012  000C66  010F               	movlb	15	; () banked
  7013  000C68  B700               	btfsc	((3840))&0ffh,(3)&7	;volatile
  7014  000C6A  D001               	goto	u2551
  7015  000C6C  D001               	goto	u2550
  7016  000C6E                     u2551:
  7017  000C6E  D7FA               	goto	l355
  7018  000C70                     u2550:
  7019  000C70  D001               	goto	l349
  7020                           	
  7021  000C72                     l357:
  7022                           	line	249
  7023                           ;CAN.H: 249: return 2;
  7024                           ;	Return value of _CANSend is never used
  7025  000C72  D000               	goto	l349
  7026                           	line	250
  7027                           	
  7028  000C74                     l354:
  7029                           	line	252
  7030                           ;CAN.H: 250: }
  7031                           ;CAN.H: 251: return 0x03;
  7032                           ;	Return value of _CANSend is never used
  7033                           	
  7034  000C74                     l349:
  7035  000C74  0012               	return
  7036                           	opt stack 0
  7037                           GLOBAL	__end_of_CANSend
  7038  000C76                     	__end_of_CANSend:
  7039                           	signat	_CANSend,12409
  7040                           	global	_YFlashNewConfigure
  7041                           
  7042 ;; *************** function _YFlashNewConfigure *****************
  7043 ;; Defined at:
  7044 ;;		line 500 in file "E:\WorkSpace\YellowFlashingController20140317\YellowFlash.C"
  7045 ;; Parameters:    Size  Location     Type
  7046 ;;		None
  7047 ;; Auto vars:     Size  Location     Type
  7048 ;;		None
  7049 ;; Return value:  Size  Location     Type
  7050 ;;		None               void
  7051 ;; Registers used:
  7052 ;;		wreg, fsr2l, fsr2h, status,2, status,0, prodl, prodh, cstack
  7053 ;; Tracked objects:
  7054 ;;		On entry : 0/0
  7055 ;;		On exit  : 0/0
  7056 ;;		Unchanged: 0/0
  7057 ;; Data sizes:     COMRAM   BANK0   BANK1   BANK2   BANK3   BANK4   BANK5   BANK6   BANK7   BANK8   BANK9  BANK10  BANK1
       1  BANK12  BANK13  BANK14
  7058 ;;      Params:         0       0       0       0       0       0       0       0       0       0       0       0       
       0       0       0       0
  7059 ;;      Locals:         0       0       0       0       0       0       0       0       0       0       0       0       
       0       0       0       0
  7060 ;;      Temps:          1       0       0       0       0       0       0       0       0       0       0       0       
       0       0       0       0
  7061 ;;      Totals:         1       0       0       0       0       0       0       0       0       0       0       0       
       0       0       0       0
  7062 ;;Total ram usage:        1 bytes
  7063 ;; Hardware stack levels used:    1
  7064 ;; Hardware stack levels required when called:    7
  7065 ;; This function calls:
  7066 ;;		_EEPROMRead
  7067 ;;		_EEPROMWrite
  7068 ;;		_CalculateTime25msCounter
  7069 ;; This function is called by:
  7070 ;;		_CANDATAAnalyzing
  7071 ;; This function uses a non-reentrant model
  7072 ;;
  7073                           psect	text17,class=CODE,space=0,reloc=2
  7074                           global __ptext17
  7075  000C76                     __ptext17:
  7076                           psect	text17
  7077                           	file	"E:\WorkSpace\YellowFlashingController20140317\YellowFlash.C"
  7078                           	line	500
  7079                           	global	__size_of_YFlashNewConfigure
  7080  0000                     	__size_of_YFlashNewConfigure	equ	__end_of_YFlashNewConfigure-_YFlashNewConfigure
  7081                           	
  7082  000C76                     _YFlashNewConfigure:
  7083                           	opt	stack 22
  7084                           	line	501
  7085                           	
  7086  000C76                     l4713:
  7087                           ;YellowFlash.C: 501: eeprom_addr = 0x0009;
  7088  000C76  0E00               	movlw	high(09h)
  7089  000C78  6E44               	movwf	((c:_eeprom_addr+1)),c
  7090  000C7A  0E09               	movlw	low(09h)
  7091  000C7C  6E43               	movwf	((c:_eeprom_addr)),c
  7092                           	line	502
  7093                           	
  7094  000C7E                     l4715:
  7095                           ;YellowFlash.C: 502: eeprom_num = 2;
  7096  000C7E  6E3B               	movwf	(??_YFlashNewConfigure+0+0)&0ffh,c
  7097  000C80  0E02               	movlw	low(02h)
  7098  000C82  6E4C               	movwf	((c:_eeprom_num)),c
  7099  000C84  503B               	movf	(??_YFlashNewConfigure+0+0)&0ffh,c,w
  7100                           	line	503
  7101                           	
  7102  000C86                     l4717:
  7103                           ;YellowFlash.C: 503: EEPROMRead(&eeprom_addr,&eeprom_num,&yflash_CFG);
  7104  000C86  0E00               	movlw	high((c:_eeprom_addr))
  7105  000C88  6E14               	movwf	((c:?_EEPROMRead+1)),c
  7106  000C8A  0E43               	movlw	low((c:_eeprom_addr))
  7107  000C8C  6E13               	movwf	((c:?_EEPROMRead)),c
  7108  000C8E  0E00               	movlw	high((c:_eeprom_num))
  7109  000C90  6E16               	movwf	(1+((c:?_EEPROMRead)+02h)),c
  7110  000C92  0E4C               	movlw	low((c:_eeprom_num))
  7111  000C94  6E15               	movwf	(0+((c:?_EEPROMRead)+02h)),c
  7112  000C96  0E00               	movlw	high((c:_yflash_CFG))
  7113  000C98  6E18               	movwf	(1+((c:?_EEPROMRead)+04h)),c
  7114  000C9A  0E47               	movlw	low((c:_yflash_CFG))
  7115  000C9C  6E17               	movwf	(0+((c:?_EEPROMRead)+04h)),c
  7116  000C9E  EC74  F00C         	call	_EEPROMRead	;wreg free
  7117                           	line	506
  7118                           	
  7119  000CA2                     l4719:
  7120                           ;YellowFlash.C: 506: if(((yflash_CFG[0]& 0xFF) != (CANRdata[1] & 0xFF)) || ((CANRdata[2]
                                  & 0x03)!= 0x00))
  7121  000CA2  5047               	movf	((c:_yflash_CFG)),c,w
  7122  000CA4  0100               	movlb	0	; () banked
  7123  000CA6  EE20  F0C1         	lfsr	2,_CANRdata+01h
  7124  000CAA  62DF               	cpfseq	indf2
  7125  000CAC  D001               	goto	u3701
  7126  000CAE  D001               	goto	u3700
  7127  000CB0                     u3701:
  7128  000CB0  D009               	goto	l4723
  7129  000CB2                     u3700:
  7130                           	
  7131  000CB2                     l4721:
  7132  000CB2  0100               	movlb	0	; () banked
  7133  000CB4  0100               	movlb	0	; () banked
  7134  000CB6  51C2               	movf	(0+(_CANRdata+02h))&0ffh,w
  7135  000CB8  0B03               	andlw	low(03h)
  7136  000CBA  B4D8               	btfsc	status,2
  7137  000CBC  D001               	goto	u3711
  7138  000CBE  D001               	goto	u3710
  7139  000CC0                     u3711:
  7140  000CC0  D0A7               	goto	l550
  7141  000CC2                     u3710:
  7142  000CC2  D000               	goto	l4723
  7143                           	
  7144  000CC4                     l547:
  7145                           	line	508
  7146                           	
  7147  000CC4                     l4723:
  7148                           ;YellowFlash.C: 507: {
  7149                           ;YellowFlash.C: 508: if((yflash_CFG[0]& 0xFF) != (CANRdata[1] & 0xFF))
  7150  000CC4  0100               	movlb	0	; () banked
  7151  000CC6  0100               	movlb	0	; () banked
  7152  000CC8  51C1               	movf	(0+(_CANRdata+01h))&0ffh,w
  7153  000CCA  1847               	xorwf	((c:_yflash_CFG)),c,w
  7154  000CCC  B4D8               	btfsc	status,2
  7155  000CCE  D001               	goto	u3721
  7156  000CD0  D001               	goto	u3720
  7157  000CD2                     u3721:
  7158  000CD2  D019               	goto	l4731
  7159  000CD4                     u3720:
  7160                           	line	510
  7161                           	
  7162  000CD4                     l4725:
  7163                           ;YellowFlash.C: 509: {
  7164                           ;YellowFlash.C: 510: eeprom_addr = 0x0009;
  7165  000CD4  0E00               	movlw	high(09h)
  7166  000CD6  6E44               	movwf	((c:_eeprom_addr+1)),c
  7167  000CD8  0E09               	movlw	low(09h)
  7168  000CDA  6E43               	movwf	((c:_eeprom_addr)),c
  7169                           	line	511
  7170                           	
  7171  000CDC                     l4727:
  7172                           ;YellowFlash.C: 511: eeprom_num = 1;
  7173  000CDC  6E3B               	movwf	(??_YFlashNewConfigure+0+0)&0ffh,c
  7174  000CDE  0E01               	movlw	low(01h)
  7175  000CE0  6E4C               	movwf	((c:_eeprom_num)),c
  7176  000CE2  503B               	movf	(??_YFlashNewConfigure+0+0)&0ffh,c,w
  7177                           	line	512
  7178                           	
  7179  000CE4                     l4729:
  7180                           ;YellowFlash.C: 512: EEPROMWrite(&eeprom_addr,&eeprom_num,(CANRdata+1));
  7181  000CE4  0E00               	movlw	high((c:_eeprom_addr))
  7182  000CE6  6E14               	movwf	((c:?_EEPROMWrite+1)),c
  7183  000CE8  0E43               	movlw	low((c:_eeprom_addr))
  7184  000CEA  6E13               	movwf	((c:?_EEPROMWrite)),c
  7185  000CEC  0E00               	movlw	high((c:_eeprom_num))
  7186  000CEE  6E16               	movwf	(1+((c:?_EEPROMWrite)+02h)),c
  7187  000CF0  0E4C               	movlw	low((c:_eeprom_num))
  7188  000CF2  6E15               	movwf	(0+((c:?_EEPROMWrite)+02h)),c
  7189  000CF4  0100               	movlb	0	; () banked
  7190  000CF6  0E00               	movlw	high(_CANRdata+01h)
  7191  000CF8  6E18               	movwf	(1+((c:?_EEPROMWrite)+04h)),c
  7192  000CFA  0100               	movlb	0	; () banked
  7193  000CFC  0EC1               	movlw	low(_CANRdata+01h)
  7194  000CFE  6E17               	movwf	(0+((c:?_EEPROMWrite)+04h)),c
  7195  000D00  ECD7  F00B         	call	_EEPROMWrite	;wreg free
  7196  000D04  D000               	goto	l4731
  7197                           	line	513
  7198                           	
  7199  000D06                     l548:
  7200                           	line	514
  7201                           	
  7202  000D06                     l4731:
  7203                           ;YellowFlash.C: 513: }
  7204                           ;YellowFlash.C: 514: if((CANRdata[2] & 0x03)!= 0x00)
  7205  000D06  0100               	movlb	0	; () banked
  7206  000D08  0100               	movlb	0	; () banked
  7207  000D0A  51C2               	movf	(0+(_CANRdata+02h))&0ffh,w
  7208  000D0C  0B03               	andlw	low(03h)
  7209  000D0E  B4D8               	btfsc	status,2
  7210  000D10  D001               	goto	u3731
  7211  000D12  D001               	goto	u3730
  7212  000D14                     u3731:
  7213  000D14  D019               	goto	l4739
  7214  000D16                     u3730:
  7215                           	line	516
  7216                           	
  7217  000D16                     l4733:
  7218                           ;YellowFlash.C: 515: {
  7219                           ;YellowFlash.C: 516: eeprom_addr = 0x000a;
  7220  000D16  0E00               	movlw	high(0Ah)
  7221  000D18  6E44               	movwf	((c:_eeprom_addr+1)),c
  7222  000D1A  0E0A               	movlw	low(0Ah)
  7223  000D1C  6E43               	movwf	((c:_eeprom_addr)),c
  7224                           	line	517
  7225                           	
  7226  000D1E                     l4735:
  7227                           ;YellowFlash.C: 517: eeprom_num = 1;
  7228  000D1E  6E3B               	movwf	(??_YFlashNewConfigure+0+0)&0ffh,c
  7229  000D20  0E01               	movlw	low(01h)
  7230  000D22  6E4C               	movwf	((c:_eeprom_num)),c
  7231  000D24  503B               	movf	(??_YFlashNewConfigure+0+0)&0ffh,c,w
  7232                           	line	518
  7233                           	
  7234  000D26                     l4737:
  7235                           ;YellowFlash.C: 518: EEPROMWrite(&eeprom_addr,&eeprom_num,(CANRdata+2));
  7236  000D26  0E00               	movlw	high((c:_eeprom_addr))
  7237  000D28  6E14               	movwf	((c:?_EEPROMWrite+1)),c
  7238  000D2A  0E43               	movlw	low((c:_eeprom_addr))
  7239  000D2C  6E13               	movwf	((c:?_EEPROMWrite)),c
  7240  000D2E  0E00               	movlw	high((c:_eeprom_num))
  7241  000D30  6E16               	movwf	(1+((c:?_EEPROMWrite)+02h)),c
  7242  000D32  0E4C               	movlw	low((c:_eeprom_num))
  7243  000D34  6E15               	movwf	(0+((c:?_EEPROMWrite)+02h)),c
  7244  000D36  0100               	movlb	0	; () banked
  7245  000D38  0E00               	movlw	high(_CANRdata+02h)
  7246  000D3A  6E18               	movwf	(1+((c:?_EEPROMWrite)+04h)),c
  7247  000D3C  0100               	movlb	0	; () banked
  7248  000D3E  0EC2               	movlw	low(_CANRdata+02h)
  7249  000D40  6E17               	movwf	(0+((c:?_EEPROMWrite)+04h)),c
  7250  000D42  ECD7  F00B         	call	_EEPROMWrite	;wreg free
  7251  000D46  D000               	goto	l4739
  7252                           	line	519
  7253                           	
  7254  000D48                     l549:
  7255                           	line	521
  7256                           	
  7257  000D48                     l4739:
  7258                           ;YellowFlash.C: 519: }
  7259                           ;YellowFlash.C: 521: eeprom_addr = 0x0009;
  7260  000D48  0E00               	movlw	high(09h)
  7261  000D4A  6E44               	movwf	((c:_eeprom_addr+1)),c
  7262  000D4C  0E09               	movlw	low(09h)
  7263  000D4E  6E43               	movwf	((c:_eeprom_addr)),c
  7264                           	line	522
  7265                           	
  7266  000D50                     l4741:
  7267                           ;YellowFlash.C: 522: eeprom_num = 2;
  7268  000D50  6E3B               	movwf	(??_YFlashNewConfigure+0+0)&0ffh,c
  7269  000D52  0E02               	movlw	low(02h)
  7270  000D54  6E4C               	movwf	((c:_eeprom_num)),c
  7271  000D56  503B               	movf	(??_YFlashNewConfigure+0+0)&0ffh,c,w
  7272                           	line	523
  7273                           ;YellowFlash.C: 523: EEPROMRead(&eeprom_addr,&eeprom_num,&yflash_CFG);
  7274  000D58  0E00               	movlw	high((c:_eeprom_addr))
  7275  000D5A  6E14               	movwf	((c:?_EEPROMRead+1)),c
  7276  000D5C  0E43               	movlw	low((c:_eeprom_addr))
  7277  000D5E  6E13               	movwf	((c:?_EEPROMRead)),c
  7278  000D60  0E00               	movlw	high((c:_eeprom_num))
  7279  000D62  6E16               	movwf	(1+((c:?_EEPROMRead)+02h)),c
  7280  000D64  0E4C               	movlw	low((c:_eeprom_num))
  7281  000D66  6E15               	movwf	(0+((c:?_EEPROMRead)+02h)),c
  7282  000D68  0E00               	movlw	high((c:_yflash_CFG))
  7283  000D6A  6E18               	movwf	(1+((c:?_EEPROMRead)+04h)),c
  7284  000D6C  0E47               	movlw	low((c:_yflash_CFG))
  7285  000D6E  6E17               	movwf	(0+((c:?_EEPROMRead)+04h)),c
  7286  000D70  EC74  F00C         	call	_EEPROMRead	;wreg free
  7287                           	line	525
  7288                           	
  7289  000D74                     l4743:
  7290                           ;YellowFlash.C: 525: rows=((yflash_CFG[0]&0xF0)>>4);
  7291  000D74  3847               	swapf	((c:_yflash_CFG)),c,w
  7292  000D76  0B0F               	andlw	(0ffh shr 4) & 0ffh
  7293  000D78  0B0F               	andlw	low(0Fh)
  7294  000D7A  0100               	movlb	0	; () banked
  7295  000D7C  0100               	movlb	0	; () banked
  7296  000D7E  6FBD               	movwf	((_rows))&0ffh
  7297                           	line	526
  7298                           	
  7299  000D80                     l4745:
  7300                           ;YellowFlash.C: 526: lines=(yflash_CFG[0]&0x0F);
  7301  000D80  5047               	movf	((c:_yflash_CFG)),c,w
  7302  000D82  0B0F               	andlw	low(0Fh)
  7303  000D84  0100               	movlb	0	; () banked
  7304  000D86  0100               	movlb	0	; () banked
  7305  000D88  6FBA               	movwf	((_lines))&0ffh
  7306                           	line	527
  7307                           	
  7308  000D8A                     l4747:
  7309                           ;YellowFlash.C: 527: CalculateTime25msCounter(rows,lines);
  7310  000D8A  C0BD  F0D8         	movff	(_rows),(?_CalculateTime25msCounter)
  7311  000D8E  C0BA  F0D9         	movff	(_lines),0+(?_CalculateTime25msCounter+01h)
  7312  000D92  ECBF  F003         	call	_CalculateTime25msCounter	;wreg free
  7313                           	line	529
  7314                           	
  7315  000D96                     l4749:
  7316                           ;YellowFlash.C: 529: time_counters=time_on_counter;
  7317  000D96  C0B4  F03C         	movff	(_time_on_counter),(c:_time_counters)
  7318  000D9A  C0B5  F03D         	movff	(_time_on_counter+1),(c:_time_counters+1)
  7319                           	line	530
  7320                           	
  7321  000D9E                     l4751:
  7322                           ;YellowFlash.C: 530: readwrite[0]=time_counters;
  7323  000D9E  C03C  F045         	movff	(c:_time_counters),(c:_readwrite)
  7324                           	line	531
  7325                           	
  7326  000DA2                     l4753:
  7327                           ;YellowFlash.C: 531: readwrite[1]=(time_counters>>8);
  7328  000DA2  503D               	movf	((c:_time_counters+1)),c,w
  7329  000DA4  6E46               	movwf	(0+((c:_readwrite)+01h)),c
  7330                           	line	532
  7331                           	
  7332  000DA6                     l4755:
  7333                           ;YellowFlash.C: 532: eeprom_addr = 0x0005;
  7334  000DA6  0E00               	movlw	high(05h)
  7335  000DA8  6E44               	movwf	((c:_eeprom_addr+1)),c
  7336  000DAA  0E05               	movlw	low(05h)
  7337  000DAC  6E43               	movwf	((c:_eeprom_addr)),c
  7338                           	line	533
  7339                           	
  7340  000DAE                     l4757:
  7341                           ;YellowFlash.C: 533: eeprom_num = 2;
  7342  000DAE  6E3B               	movwf	(??_YFlashNewConfigure+0+0)&0ffh,c
  7343  000DB0  0E02               	movlw	low(02h)
  7344  000DB2  6E4C               	movwf	((c:_eeprom_num)),c
  7345  000DB4  503B               	movf	(??_YFlashNewConfigure+0+0)&0ffh,c,w
  7346                           	line	534
  7347                           	
  7348  000DB6                     l4759:
  7349                           ;YellowFlash.C: 534: EEPROMWrite(&eeprom_addr,&eeprom_num,&readwrite);
  7350  000DB6  0E00               	movlw	high((c:_eeprom_addr))
  7351  000DB8  6E14               	movwf	((c:?_EEPROMWrite+1)),c
  7352  000DBA  0E43               	movlw	low((c:_eeprom_addr))
  7353  000DBC  6E13               	movwf	((c:?_EEPROMWrite)),c
  7354  000DBE  0E00               	movlw	high((c:_eeprom_num))
  7355  000DC0  6E16               	movwf	(1+((c:?_EEPROMWrite)+02h)),c
  7356  000DC2  0E4C               	movlw	low((c:_eeprom_num))
  7357  000DC4  6E15               	movwf	(0+((c:?_EEPROMWrite)+02h)),c
  7358  000DC6  0E00               	movlw	high((c:_readwrite))
  7359  000DC8  6E18               	movwf	(1+((c:?_EEPROMWrite)+04h)),c
  7360  000DCA  0E45               	movlw	low((c:_readwrite))
  7361  000DCC  6E17               	movwf	(0+((c:?_EEPROMWrite)+04h)),c
  7362  000DCE  ECD7  F00B         	call	_EEPROMWrite	;wreg free
  7363                           	line	536
  7364                           	
  7365  000DD2                     l4761:
  7366                           ;YellowFlash.C: 536: time_counters=time_off_counter;
  7367  000DD2  C0B2  F03C         	movff	(_time_off_counter),(c:_time_counters)
  7368  000DD6  C0B3  F03D         	movff	(_time_off_counter+1),(c:_time_counters+1)
  7369                           	line	537
  7370                           	
  7371  000DDA                     l4763:
  7372                           ;YellowFlash.C: 537: readwrite[0]=time_counters;
  7373  000DDA  C03C  F045         	movff	(c:_time_counters),(c:_readwrite)
  7374                           	line	538
  7375                           	
  7376  000DDE                     l4765:
  7377                           ;YellowFlash.C: 538: readwrite[1]=(time_counters>>8);
  7378  000DDE  503D               	movf	((c:_time_counters+1)),c,w
  7379  000DE0  6E46               	movwf	(0+((c:_readwrite)+01h)),c
  7380                           	line	539
  7381                           	
  7382  000DE2                     l4767:
  7383                           ;YellowFlash.C: 539: eeprom_addr = 0x0007;
  7384  000DE2  0E00               	movlw	high(07h)
  7385  000DE4  6E44               	movwf	((c:_eeprom_addr+1)),c
  7386  000DE6  0E07               	movlw	low(07h)
  7387  000DE8  6E43               	movwf	((c:_eeprom_addr)),c
  7388                           	line	540
  7389                           	
  7390  000DEA                     l4769:
  7391                           ;YellowFlash.C: 540: eeprom_num = 2;
  7392  000DEA  6E3B               	movwf	(??_YFlashNewConfigure+0+0)&0ffh,c
  7393  000DEC  0E02               	movlw	low(02h)
  7394  000DEE  6E4C               	movwf	((c:_eeprom_num)),c
  7395  000DF0  503B               	movf	(??_YFlashNewConfigure+0+0)&0ffh,c,w
  7396                           	line	541
  7397                           	
  7398  000DF2                     l4771:
  7399                           ;YellowFlash.C: 541: EEPROMWrite(&eeprom_addr,&eeprom_num,&readwrite);
  7400  000DF2  0E00               	movlw	high((c:_eeprom_addr))
  7401  000DF4  6E14               	movwf	((c:?_EEPROMWrite+1)),c
  7402  000DF6  0E43               	movlw	low((c:_eeprom_addr))
  7403  000DF8  6E13               	movwf	((c:?_EEPROMWrite)),c
  7404  000DFA  0E00               	movlw	high((c:_eeprom_num))
  7405  000DFC  6E16               	movwf	(1+((c:?_EEPROMWrite)+02h)),c
  7406  000DFE  0E4C               	movlw	low((c:_eeprom_num))
  7407  000E00  6E15               	movwf	(0+((c:?_EEPROMWrite)+02h)),c
  7408  000E02  0E00               	movlw	high((c:_readwrite))
  7409  000E04  6E18               	movwf	(1+((c:?_EEPROMWrite)+04h)),c
  7410  000E06  0E45               	movlw	low((c:_readwrite))
  7411  000E08  6E17               	movwf	(0+((c:?_EEPROMWrite)+04h)),c
  7412  000E0A  ECD7  F00B         	call	_EEPROMWrite	;wreg free
  7413  000E0E  D000               	goto	l550
  7414                           	line	547
  7415                           	
  7416  000E10                     l545:
  7417                           	line	548
  7418                           	
  7419  000E10                     l550:
  7420  000E10  0012               	return
  7421                           	opt stack 0
  7422                           GLOBAL	__end_of_YFlashNewConfigure
  7423  000E12                     	__end_of_YFlashNewConfigure:
  7424                           	signat	_YFlashNewConfigure,88
  7425                           	global	_EEPROMWrite
  7426                           
  7427 ;; *************** function _EEPROMWrite *****************
  7428 ;; Defined at:
  7429 ;;		line 57 in file "E:\WorkSpace\YellowFlashingController20140317\mcu.h"
  7430 ;; Parameters:    Size  Location     Type
  7431 ;;  addr            2   18[COMRAM] PTR unsigned char 
  7432 ;;		 -> eeprom_addr(2), 
  7433 ;;  num             2   20[COMRAM] PTR unsigned char 
  7434 ;;		 -> eeprom_num(1), 
  7435 ;;  dat             2   22[COMRAM] PTR unsigned char 
  7436 ;;		 -> readwrite(2), CANRdata(8), 
  7437 ;; Auto vars:     Size  Location     Type
  7438 ;;		None
  7439 ;; Return value:  Size  Location     Type
  7440 ;;		None               void
  7441 ;; Registers used:
  7442 ;;		wreg, fsr2l, fsr2h, status,2, status,0
  7443 ;; Tracked objects:
  7444 ;;		On entry : 0/0
  7445 ;;		On exit  : 0/0
  7446 ;;		Unchanged: 0/0
  7447 ;; Data sizes:     COMRAM   BANK0   BANK1   BANK2   BANK3   BANK4   BANK5   BANK6   BANK7   BANK8   BANK9  BANK10  BANK1
       1  BANK12  BANK13  BANK14
  7448 ;;      Params:         6       0       0       0       0       0       0       0       0       0       0       0       
       0       0       0       0
  7449 ;;      Locals:         0       0       0       0       0       0       0       0       0       0       0       0       
       0       0       0       0
  7450 ;;      Temps:          0       0       0       0       0       0       0       0       0       0       0       0       
       0       0       0       0
  7451 ;;      Totals:         6       0       0       0       0       0       0       0       0       0       0       0       
       0       0       0       0
  7452 ;;Total ram usage:        6 bytes
  7453 ;; Hardware stack levels used:    1
  7454 ;; Hardware stack levels required when called:    4
  7455 ;; This function calls:
  7456 ;;		Nothing
  7457 ;; This function is called by:
  7458 ;;		_CANWriteID
  7459 ;;		_YFlashNewConfigure
  7460 ;; This function uses a non-reentrant model
  7461 ;;
  7462                           psect	text18,class=CODE,space=0,reloc=2
  7463                           global __ptext18
  7464  0017AE                     __ptext18:
  7465                           psect	text18
  7466                           	file	"E:\WorkSpace\YellowFlashingController20140317\mcu.h"
  7467                           	line	57
  7468                           	global	__size_of_EEPROMWrite
  7469  0000                     	__size_of_EEPROMWrite	equ	__end_of_EEPROMWrite-_EEPROMWrite
  7470                           	
  7471  0017AE                     _EEPROMWrite:
  7472                           	opt	stack 24
  7473                           	line	58
  7474                           	
  7475  0017AE                     l3795:
  7476                           ;mcu.h: 58: INTCON &= 0x3f;
  7477  0017AE  0E3F               	movlw	(03Fh)&0ffh
  7478  0017B0  16F2               	andwf	((c:4082)),c	;volatile
  7479                           	line	59
  7480                           ;mcu.h: 59: while((*num)--)
  7481  0017B2  D027               	goto	l3821
  7482                           	
  7483  0017B4                     l375:
  7484                           	line	61
  7485                           	
  7486  0017B4                     l3797:
  7487                           ;mcu.h: 60: {
  7488                           ;mcu.h: 61: EEADRH = (*addr)>>8;
  7489  0017B4  0E00               	movlw	low(0)
  7490  0017B6  6E75               	movwf	((c:3957)),c	;volatile
  7491                           	line	62
  7492                           	
  7493  0017B8                     l3799:
  7494                           ;mcu.h: 62: EEADR = (*addr);
  7495  0017B8  C013  FFD9         	movff	(c:EEPROMWrite@addr),fsr2l
  7496  0017BC  C014  FFDA         	movff	(c:EEPROMWrite@addr+1),fsr2h
  7497  0017C0  50DF               	movf	indf2,w
  7498  0017C2  6E74               	movwf	((c:3956)),c	;volatile
  7499                           	line	63
  7500                           	
  7501  0017C4                     l3801:
  7502                           ;mcu.h: 63: (*addr)++;
  7503  0017C4  C013  FFD9         	movff	(c:EEPROMWrite@addr),fsr2l
  7504  0017C8  C014  FFDA         	movff	(c:EEPROMWrite@addr+1),fsr2h
  7505  0017CC  2ADF               	incf	indf2
  7506                           
  7507                           	line	64
  7508                           	
  7509  0017CE                     l3803:
  7510                           ;mcu.h: 64: EEDATA = (*dat);
  7511  0017CE  C017  FFD9         	movff	(c:EEPROMWrite@dat),fsr2l
  7512  0017D2  C018  FFDA         	movff	(c:EEPROMWrite@dat+1),fsr2h
  7513  0017D6  50DF               	movf	indf2,w
  7514  0017D8  6E73               	movwf	((c:3955)),c	;volatile
  7515                           	line	65
  7516                           	
  7517  0017DA                     l3805:
  7518                           ;mcu.h: 65: dat++;
  7519  0017DA  4A17               	infsnz	((c:EEPROMWrite@dat)),c
  7520  0017DC  2A18               	incf	((c:EEPROMWrite@dat+1)),c
  7521                           	line	67
  7522                           	
  7523  0017DE                     l3807:
  7524                           ;mcu.h: 67: EECON1 &= 0x3f;
  7525  0017DE  0E3F               	movlw	(03Fh)&0ffh
  7526  0017E0  167F               	andwf	((c:3967)),c	;volatile
  7527                           	line	69
  7528                           	
  7529  0017E2                     l3809:
  7530                           ;mcu.h: 69: EECON1 |= 0x04;
  7531  0017E2  847F               	bsf	(0+(2/8)+(c:3967)),c,(2)&7	;volatile
  7532                           	line	74
  7533                           	
  7534  0017E4                     l3811:
  7535                           ;mcu.h: 74: EECON2 = 0x55;
  7536  0017E4  0E55               	movlw	low(055h)
  7537  0017E6  6E7E               	movwf	((c:3966)),c	;volatile
  7538                           	line	75
  7539                           	
  7540  0017E8                     l3813:
  7541                           ;mcu.h: 75: EECON2 = 0xaa;
  7542  0017E8  0EAA               	movlw	low(0AAh)
  7543  0017EA  6E7E               	movwf	((c:3966)),c	;volatile
  7544                           	line	77
  7545                           	
  7546  0017EC                     l3815:
  7547                           ;mcu.h: 77: EECON1 |= 0x02;
  7548  0017EC  827F               	bsf	(0+(1/8)+(c:3967)),c,(1)&7	;volatile
  7549                           	line	79
  7550                           	
  7551  0017EE                     l3817:
  7552                           # 79 "E:\WorkSpace\YellowFlashingController20140317\mcu.h"
  7553  0017EE  F000               NOP ;# 
  7554                           psect	text18
  7555                           	line	80
  7556                           ;mcu.h: 80: while(EECON1 & 0x02);
  7557  0017F0  D000               	goto	l376
  7558                           	
  7559  0017F2                     l377:
  7560                           	
  7561  0017F2                     l376:
  7562                           	
  7563  0017F2  B27F               	btfsc	((c:3967)),c,(1)&7	;volatile
  7564  0017F4  D001               	goto	u2631
  7565  0017F6  D001               	goto	u2630
  7566  0017F8                     u2631:
  7567  0017F8  D7FC               	goto	l376
  7568  0017FA                     u2630:
  7569                           	
  7570  0017FA                     l378:
  7571                           	line	81
  7572                           # 81 "E:\WorkSpace\YellowFlashingController20140317\mcu.h"
  7573  0017FA  F000               NOP ;# 
  7574                           psect	text18
  7575                           	line	82
  7576                           	
  7577  0017FC                     l3819:
  7578                           ;mcu.h: 82: EECON1 &= 0x04;
  7579  0017FC  0E04               	movlw	(04h)&0ffh
  7580  0017FE  167F               	andwf	((c:3967)),c	;volatile
  7581  001800  D000               	goto	l3821
  7582                           	line	84
  7583                           	
  7584  001802                     l374:
  7585                           	line	59
  7586                           	
  7587  001802                     l3821:
  7588  001802  0EFF               	movlw	(0FFh)&0ffh
  7589  001804  C015  FFD9         	movff	(c:EEPROMWrite@num),fsr2l
  7590  001808  C016  FFDA         	movff	(c:EEPROMWrite@num+1),fsr2h
  7591  00180C  06DF               	decf	indf2
  7592                           
  7593  00180E  62DF               	cpfseq	indf2
  7594  001810  D001               	goto	u2641
  7595  001812  D001               	goto	u2640
  7596  001814                     u2641:
  7597  001814  D7CF               	goto	l3797
  7598  001816                     u2640:
  7599  001816  D000               	goto	l3823
  7600                           	
  7601  001818                     l379:
  7602                           	line	86
  7603                           	
  7604  001818                     l3823:
  7605                           ;mcu.h: 84: }
  7606                           ;mcu.h: 86: INTCON &= 0xc0;
  7607  001818  0EC0               	movlw	(0C0h)&0ffh
  7608  00181A  16F2               	andwf	((c:4082)),c	;volatile
  7609                           	line	87
  7610                           	
  7611  00181C                     l380:
  7612  00181C  0012               	return
  7613                           	opt stack 0
  7614                           GLOBAL	__end_of_EEPROMWrite
  7615  00181E                     	__end_of_EEPROMWrite:
  7616                           	signat	_EEPROMWrite,12408
  7617                           	global	_CalculateTime25msCounter
  7618                           
  7619 ;; *************** function _CalculateTime25msCounter *****************
  7620 ;; Defined at:
  7621 ;;		line 158 in file "E:\WorkSpace\YellowFlashingController20140317\YellowFlash.C"
  7622 ;; Parameters:    Size  Location     Type
  7623 ;;  row             1    0[BANK0 ] unsigned char 
  7624 ;;  line            1    1[BANK0 ] unsigned char 
  7625 ;; Auto vars:     Size  Location     Type
  7626 ;;  j               2   10[BANK0 ] int 
  7627 ;;  i               2    8[BANK0 ] int 
  7628 ;; Return value:  Size  Location     Type
  7629 ;;		None               void
  7630 ;; Registers used:
  7631 ;;		wreg, fsr2l, fsr2h, status,2, status,0, prodl, prodh, cstack
  7632 ;; Tracked objects:
  7633 ;;		On entry : 0/0
  7634 ;;		On exit  : 0/0
  7635 ;;		Unchanged: 0/0
  7636 ;; Data sizes:     COMRAM   BANK0   BANK1   BANK2   BANK3   BANK4   BANK5   BANK6   BANK7   BANK8   BANK9  BANK10  BANK1
       1  BANK12  BANK13  BANK14
  7637 ;;      Params:         0       2       0       0       0       0       0       0       0       0       0       0       
       0       0       0       0
  7638 ;;      Locals:         0       4       0       0       0       0       0       0       0       0       0       0       
       0       0       0       0
  7639 ;;      Temps:          0       6       0       0       0       0       0       0       0       0       0       0       
       0       0       0       0
  7640 ;;      Totals:         0      12       0       0       0       0       0       0       0       0       0       0       
       0       0       0       0
  7641 ;;Total ram usage:       12 bytes
  7642 ;; Hardware stack levels used:    1
  7643 ;; Hardware stack levels required when called:    6
  7644 ;; This function calls:
  7645 ;;		___ftmul
  7646 ;;		___fttol
  7647 ;;		___lwdiv
  7648 ;; This function is called by:
  7649 ;;		_YFlashNewConfigure
  7650 ;; This function uses a non-reentrant model
  7651 ;;
  7652                           psect	text19,class=CODE,space=0,reloc=2
  7653                           global __ptext19
  7654  00077E                     __ptext19:
  7655                           psect	text19
  7656                           	file	"E:\WorkSpace\YellowFlashingController20140317\YellowFlash.C"
  7657                           	line	158
  7658                           	global	__size_of_CalculateTime25msCounter
  7659  0000                     	__size_of_CalculateTime25msCounter	equ	__end_of_CalculateTime25msCounter-_CalculateTime
                                 25msCounter
  7660                           	
  7661  00077E                     _CalculateTime25msCounter:
  7662                           	opt	stack 22
  7663                           	line	160
  7664                           	
  7665  00077E                     l4689:
  7666                           ;YellowFlash.C: 159: int i,j;
  7667                           ;YellowFlash.C: 160: for(i=0;i<10;i++)
  7668  00077E  0E00               	movlw	high(0)
  7669  000780  0100               	movlb	0	; () banked
  7670  000782  0100               	movlb	0	; () banked
  7671  000784  6FE1               	movwf	((CalculateTime25msCounter@i+1))&0ffh
  7672  000786  0E00               	movlw	low(0)
  7673  000788  0100               	movlb	0	; () banked
  7674  00078A  6FE0               	movwf	((CalculateTime25msCounter@i))&0ffh
  7675                           	
  7676  00078C                     l4691:
  7677  00078C  0100               	movlb	0	; () banked
  7678  00078E  0100               	movlb	0	; () banked
  7679  000790  51E1               	movf	((CalculateTime25msCounter@i+1))&0ffh,w
  7680  000792  0A80               	xorlw	80h
  7681  000794  0F80               	addlw	-((0)^80h)
  7682  000796  0E0A               	movlw	0Ah
  7683  000798  B4D8               	btfsc	status,2
  7684  00079A  5DE0               	subwf	((CalculateTime25msCounter@i))&0ffh,w
  7685  00079C  A0D8               	btfss	status,0
  7686  00079E  D001               	goto	u3641
  7687  0007A0  D001               	goto	u3640
  7688  0007A2                     u3641:
  7689  0007A2  D002               	goto	l4695
  7690  0007A4                     u3640:
  7691  0007A4  D0F4               	goto	l4711
  7692                           	
  7693  0007A6                     l4693:
  7694  0007A6  D0F3               	goto	l4711
  7695                           	line	161
  7696                           	
  7697  0007A8                     l473:
  7698                           	line	162
  7699                           	
  7700  0007A8                     l4695:
  7701                           ;YellowFlash.C: 161: {
  7702                           ;YellowFlash.C: 162: for(j=0;j<16;j++)
  7703  0007A8  0E00               	movlw	high(0)
  7704  0007AA  0100               	movlb	0	; () banked
  7705  0007AC  0100               	movlb	0	; () banked
  7706  0007AE  6FE3               	movwf	((CalculateTime25msCounter@j+1))&0ffh
  7707  0007B0  0E00               	movlw	low(0)
  7708  0007B2  0100               	movlb	0	; () banked
  7709  0007B4  6FE2               	movwf	((CalculateTime25msCounter@j))&0ffh
  7710                           	
  7711  0007B6                     l4697:
  7712  0007B6  0100               	movlb	0	; () banked
  7713  0007B8  0100               	movlb	0	; () banked
  7714  0007BA  51E3               	movf	((CalculateTime25msCounter@j+1))&0ffh,w
  7715  0007BC  0A80               	xorlw	80h
  7716  0007BE  0F80               	addlw	-((0)^80h)
  7717  0007C0  0E10               	movlw	010h
  7718  0007C2  B4D8               	btfsc	status,2
  7719  0007C4  5DE2               	subwf	((CalculateTime25msCounter@j))&0ffh,w
  7720  0007C6  A0D8               	btfss	status,0
  7721  0007C8  D001               	goto	u3651
  7722  0007CA  D001               	goto	u3650
  7723  0007CC                     u3651:
  7724  0007CC  D002               	goto	l4701
  7725  0007CE                     u3650:
  7726  0007CE  D0CE               	goto	l4707
  7727                           	
  7728  0007D0                     l4699:
  7729  0007D0  D0CD               	goto	l4707
  7730                           	line	163
  7731                           	
  7732  0007D2                     l475:
  7733                           	line	164
  7734                           	
  7735  0007D2                     l4701:
  7736                           ;YellowFlash.C: 163: {
  7737                           ;YellowFlash.C: 164: time_on[i][j]=period[i]*cycledutyon[j];
  7738  0007D2  0100               	movlb	0	; () banked
  7739  0007D4  0100               	movlb	0	; () banked
  7740  0007D6  51E2               	movf	((CalculateTime25msCounter@j))&0ffh,w
  7741  0007D8  0D03               	mullw	03h
  7742  0007DA  0100               	movlb	0	; () banked
  7743  0007DC  0E60               	movlw	low(_cycledutyon)
  7744  0007DE  24F3               	addwf	(prodl),c,w
  7745  0007E0  6ED9               	movwf	c:fsr2l
  7746  0007E2  6ADA               	clrf	1+c:fsr2l
  7747  0007E4  0100               	movlb	0	; () banked
  7748  0007E6  0E00               	movlw	high(_cycledutyon)
  7749  0007E8  22DA               	addwfc	1+c:fsr2l
  7750  0007EA  CFDE F01E          	movff	postinc2,0+((c:?___ftmul)+03h)
  7751  0007EE  CFDE F01F          	movff	postinc2,1+((c:?___ftmul)+03h)
  7752  0007F2  CFDD F020          	movff	postdec2,2+((c:?___ftmul)+03h)
  7753  0007F6  0100               	movlb	0	; () banked
  7754  0007F8  0100               	movlb	0	; () banked
  7755  0007FA  51E0               	movf	((CalculateTime25msCounter@i))&0ffh,w
  7756  0007FC  0D03               	mullw	03h
  7757  0007FE  0100               	movlb	0	; () banked
  7758  000800  0E90               	movlw	low(_period)
  7759  000802  24F3               	addwf	(prodl),c,w
  7760  000804  6ED9               	movwf	c:fsr2l
  7761  000806  6ADA               	clrf	1+c:fsr2l
  7762  000808  0100               	movlb	0	; () banked
  7763  00080A  0E00               	movlw	high(_period)
  7764  00080C  22DA               	addwfc	1+c:fsr2l
  7765  00080E  CFDE F01B          	movff	postinc2,(c:?___ftmul)
  7766  000812  CFDE F01C          	movff	postinc2,(c:?___ftmul+1)
  7767  000816  CFDD F01D          	movff	postdec2,(c:?___ftmul+2)
  7768  00081A  EC09  F007         	call	___ftmul	;wreg free
  7769  00081E  C01B  F02C         	movff	0+?___ftmul,(c:?___fttol)
  7770  000822  C01C  F02D         	movff	1+?___ftmul,(c:?___fttol+1)
  7771  000826  C01D  F02E         	movff	2+?___ftmul,(c:?___fttol+2)
  7772  00082A  ECA8  F007         	call	___fttol	;wreg free
  7773  00082E  90D8               	bcf	status,0
  7774  000830  0100               	movlb	0	; () banked
  7775  000832  0100               	movlb	0	; () banked
  7776  000834  35E2               	rlcf	((CalculateTime25msCounter@j))&0ffh,w
  7777  000836  0100               	movlb	0	; () banked
  7778  000838  6FDA               	movwf	(??_CalculateTime25msCounter+0+0)&0ffh
  7779  00083A  0100               	movlb	0	; () banked
  7780  00083C  0100               	movlb	0	; () banked
  7781  00083E  35E3               	rlcf	((CalculateTime25msCounter@j+1))&0ffh,w
  7782  000840  0100               	movlb	0	; () banked
  7783  000842  6FDB               	movwf	1+(??_CalculateTime25msCounter+0+0)&0ffh
  7784  000844  0100               	movlb	0	; () banked
  7785  000846  C0E0  F0DC         	movff	(CalculateTime25msCounter@i),??_CalculateTime25msCounter+2+0
  7786  00084A  0100               	movlb	0	; () banked
  7787  00084C  C0E1  F0DD         	movff	(CalculateTime25msCounter@i+1),??_CalculateTime25msCounter+2+0+1
  7788  000850  0E05               	movlw	05h
  7789  000852                     u3665:
  7790  000852  90D8               	bcf	status,0
  7791  000854  0100               	movlb	0	; () banked
  7792  000856  37DC               	rlcf	(??_CalculateTime25msCounter+2+0)&0ffh
  7793  000858  37DD               	rlcf	(??_CalculateTime25msCounter+2+1)&0ffh
  7794  00085A  2EE8               	decfsz	wreg
  7795  00085C  D7FA               	goto	u3665
  7796  00085E  0E70               	movlw	low(_time_on)
  7797  000860  0100               	movlb	0	; () banked
  7798  000862  25DC               	addwf	(??_CalculateTime25msCounter+2+0)&0ffh,w
  7799  000864  0100               	movlb	0	; () banked
  7800  000866  6FDE               	movwf	(??_CalculateTime25msCounter+4+0)&0ffh
  7801  000868  0E02               	movlw	high(_time_on)
  7802  00086A  0100               	movlb	0	; () banked
  7803  00086C  21DD               	addwfc	(??_CalculateTime25msCounter+2+1)&0ffh,w
  7804  00086E  0100               	movlb	0	; () banked
  7805  000870  6FDF               	movwf	1+(??_CalculateTime25msCounter+4+0)&0ffh
  7806  000872  0100               	movlb	0	; () banked
  7807  000874  51DA               	movf	(??_CalculateTime25msCounter+0+0)&0ffh,w
  7808  000876  0100               	movlb	0	; () banked
  7809  000878  25DE               	addwf	(??_CalculateTime25msCounter+4+0)&0ffh,w
  7810  00087A  6ED9               	movwf	c:fsr2l
  7811  00087C  0100               	movlb	0	; () banked
  7812  00087E  51DB               	movf	(??_CalculateTime25msCounter+0+1)&0ffh,w
  7813  000880  0100               	movlb	0	; () banked
  7814  000882  21DF               	addwfc	(??_CalculateTime25msCounter+4+1)&0ffh,w
  7815  000884  6EDA               	movwf	1+c:fsr2l
  7816  000886  C02C  FFDE         	movff	0+?___fttol,postinc2
  7817  00088A  C02D  FFDD         	movff	1+?___fttol,postdec2
  7818                           
  7819                           	line	165
  7820                           ;YellowFlash.C: 165: time_off[i][j]=period[i]*cycledutyoff[j];
  7821  00088E  0100               	movlb	0	; () banked
  7822  000890  0100               	movlb	0	; () banked
  7823  000892  51E2               	movf	((CalculateTime25msCounter@j))&0ffh,w
  7824  000894  0D03               	mullw	03h
  7825  000896  0101               	movlb	1	; () banked
  7826  000898  0E00               	movlw	low(_cycledutyoff)
  7827  00089A  24F3               	addwf	(prodl),c,w
  7828  00089C  6ED9               	movwf	c:fsr2l
  7829  00089E  6ADA               	clrf	1+c:fsr2l
  7830  0008A0  0101               	movlb	1	; () banked
  7831  0008A2  0E01               	movlw	high(_cycledutyoff)
  7832  0008A4  22DA               	addwfc	1+c:fsr2l
  7833  0008A6  CFDE F01E          	movff	postinc2,0+((c:?___ftmul)+03h)
  7834  0008AA  CFDE F01F          	movff	postinc2,1+((c:?___ftmul)+03h)
  7835  0008AE  CFDD F020          	movff	postdec2,2+((c:?___ftmul)+03h)
  7836  0008B2  0100               	movlb	0	; () banked
  7837  0008B4  0100               	movlb	0	; () banked
  7838  0008B6  51E0               	movf	((CalculateTime25msCounter@i))&0ffh,w
  7839  0008B8  0D03               	mullw	03h
  7840  0008BA  0100               	movlb	0	; () banked
  7841  0008BC  0E90               	movlw	low(_period)
  7842  0008BE  24F3               	addwf	(prodl),c,w
  7843  0008C0  6ED9               	movwf	c:fsr2l
  7844  0008C2  6ADA               	clrf	1+c:fsr2l
  7845  0008C4  0100               	movlb	0	; () banked
  7846  0008C6  0E00               	movlw	high(_period)
  7847  0008C8  22DA               	addwfc	1+c:fsr2l
  7848  0008CA  CFDE F01B          	movff	postinc2,(c:?___ftmul)
  7849  0008CE  CFDE F01C          	movff	postinc2,(c:?___ftmul+1)
  7850  0008D2  CFDD F01D          	movff	postdec2,(c:?___ftmul+2)
  7851  0008D6  EC09  F007         	call	___ftmul	;wreg free
  7852  0008DA  C01B  F02C         	movff	0+?___ftmul,(c:?___fttol)
  7853  0008DE  C01C  F02D         	movff	1+?___ftmul,(c:?___fttol+1)
  7854  0008E2  C01D  F02E         	movff	2+?___ftmul,(c:?___fttol+2)
  7855  0008E6  ECA8  F007         	call	___fttol	;wreg free
  7856  0008EA  90D8               	bcf	status,0
  7857  0008EC  0100               	movlb	0	; () banked
  7858  0008EE  0100               	movlb	0	; () banked
  7859  0008F0  35E2               	rlcf	((CalculateTime25msCounter@j))&0ffh,w
  7860  0008F2  0100               	movlb	0	; () banked
  7861  0008F4  6FDA               	movwf	(??_CalculateTime25msCounter+0+0)&0ffh
  7862  0008F6  0100               	movlb	0	; () banked
  7863  0008F8  0100               	movlb	0	; () banked
  7864  0008FA  35E3               	rlcf	((CalculateTime25msCounter@j+1))&0ffh,w
  7865  0008FC  0100               	movlb	0	; () banked
  7866  0008FE  6FDB               	movwf	1+(??_CalculateTime25msCounter+0+0)&0ffh
  7867  000900  0100               	movlb	0	; () banked
  7868  000902  C0E0  F0DC         	movff	(CalculateTime25msCounter@i),??_CalculateTime25msCounter+2+0
  7869  000906  0100               	movlb	0	; () banked
  7870  000908  C0E1  F0DD         	movff	(CalculateTime25msCounter@i+1),??_CalculateTime25msCounter+2+0+1
  7871  00090C  0E05               	movlw	05h
  7872  00090E                     u3675:
  7873  00090E  90D8               	bcf	status,0
  7874  000910  0100               	movlb	0	; () banked
  7875  000912  37DC               	rlcf	(??_CalculateTime25msCounter+2+0)&0ffh
  7876  000914  37DD               	rlcf	(??_CalculateTime25msCounter+2+1)&0ffh
  7877  000916  2EE8               	decfsz	wreg
  7878  000918  D7FA               	goto	u3675
  7879  00091A  0E30               	movlw	low(_time_off)
  7880  00091C  0100               	movlb	0	; () banked
  7881  00091E  25DC               	addwf	(??_CalculateTime25msCounter+2+0)&0ffh,w
  7882  000920  0100               	movlb	0	; () banked
  7883  000922  6FDE               	movwf	(??_CalculateTime25msCounter+4+0)&0ffh
  7884  000924  0E01               	movlw	high(_time_off)
  7885  000926  0100               	movlb	0	; () banked
  7886  000928  21DD               	addwfc	(??_CalculateTime25msCounter+2+1)&0ffh,w
  7887  00092A  0100               	movlb	0	; () banked
  7888  00092C  6FDF               	movwf	1+(??_CalculateTime25msCounter+4+0)&0ffh
  7889  00092E  0100               	movlb	0	; () banked
  7890  000930  51DA               	movf	(??_CalculateTime25msCounter+0+0)&0ffh,w
  7891  000932  0100               	movlb	0	; () banked
  7892  000934  25DE               	addwf	(??_CalculateTime25msCounter+4+0)&0ffh,w
  7893  000936  6ED9               	movwf	c:fsr2l
  7894  000938  0100               	movlb	0	; () banked
  7895  00093A  51DB               	movf	(??_CalculateTime25msCounter+0+1)&0ffh,w
  7896  00093C  0100               	movlb	0	; () banked
  7897  00093E  21DF               	addwfc	(??_CalculateTime25msCounter+4+1)&0ffh,w
  7898  000940  6EDA               	movwf	1+c:fsr2l
  7899  000942  C02C  FFDE         	movff	0+?___fttol,postinc2
  7900  000946  C02D  FFDD         	movff	1+?___fttol,postdec2
  7901                           
  7902                           	line	162
  7903                           	
  7904  00094A                     l4703:
  7905  00094A  0100               	movlb	0	; () banked
  7906  00094C  0100               	movlb	0	; () banked
  7907  00094E  4BE2               	infsnz	((CalculateTime25msCounter@j))&0ffh
  7908  000950  2BE3               	incf	((CalculateTime25msCounter@j+1))&0ffh
  7909                           	
  7910  000952                     l4705:
  7911  000952  0100               	movlb	0	; () banked
  7912  000954  0100               	movlb	0	; () banked
  7913  000956  51E3               	movf	((CalculateTime25msCounter@j+1))&0ffh,w
  7914  000958  0A80               	xorlw	80h
  7915  00095A  0F80               	addlw	-((0)^80h)
  7916  00095C  0E10               	movlw	010h
  7917  00095E  B4D8               	btfsc	status,2
  7918  000960  5DE2               	subwf	((CalculateTime25msCounter@j))&0ffh,w
  7919  000962  A0D8               	btfss	status,0
  7920  000964  D001               	goto	u3681
  7921  000966  D001               	goto	u3680
  7922  000968                     u3681:
  7923  000968  D734               	goto	l4701
  7924  00096A                     u3680:
  7925  00096A  D000               	goto	l4707
  7926                           	
  7927  00096C                     l476:
  7928                           	line	160
  7929                           	
  7930  00096C                     l4707:
  7931  00096C  0100               	movlb	0	; () banked
  7932  00096E  0100               	movlb	0	; () banked
  7933  000970  4BE0               	infsnz	((CalculateTime25msCounter@i))&0ffh
  7934  000972  2BE1               	incf	((CalculateTime25msCounter@i+1))&0ffh
  7935                           	
  7936  000974                     l4709:
  7937  000974  0100               	movlb	0	; () banked
  7938  000976  0100               	movlb	0	; () banked
  7939  000978  51E1               	movf	((CalculateTime25msCounter@i+1))&0ffh,w
  7940  00097A  0A80               	xorlw	80h
  7941  00097C  0F80               	addlw	-((0)^80h)
  7942  00097E  0E0A               	movlw	0Ah
  7943  000980  B4D8               	btfsc	status,2
  7944  000982  5DE0               	subwf	((CalculateTime25msCounter@i))&0ffh,w
  7945  000984  A0D8               	btfss	status,0
  7946  000986  D001               	goto	u3691
  7947  000988  D001               	goto	u3690
  7948  00098A                     u3691:
  7949  00098A  D70E               	goto	l4695
  7950  00098C                     u3690:
  7951  00098C  D000               	goto	l4711
  7952                           	
  7953  00098E                     l474:
  7954                           	line	168
  7955                           	
  7956  00098E                     l4711:
  7957                           ;YellowFlash.C: 166: }
  7958                           ;YellowFlash.C: 167: }
  7959                           ;YellowFlash.C: 168: time_on_counter=time_on[line][row]/25;
  7960  00098E  0100               	movlb	0	; () banked
  7961  000990  0100               	movlb	0	; () banked
  7962  000992  51D9               	movf	((CalculateTime25msCounter@line))&0ffh,w
  7963  000994  0D20               	mullw	020h
  7964  000996  0E70               	movlw	low(_time_on)
  7965  000998  24F3               	addwf	(prodl),c,w
  7966  00099A  0100               	movlb	0	; () banked
  7967  00099C  6FDA               	movwf	(??_CalculateTime25msCounter+0+0)&0ffh
  7968  00099E  0E02               	movlw	high(_time_on)
  7969  0009A0  20F4               	addwfc	prod+1,w
  7970  0009A2  0100               	movlb	0	; () banked
  7971  0009A4  6FDB               	movwf	1+(??_CalculateTime25msCounter+0+0)&0ffh
  7972  0009A6  0100               	movlb	0	; () banked
  7973  0009A8  0100               	movlb	0	; () banked
  7974  0009AA  51D8               	movf	((CalculateTime25msCounter@row))&0ffh,w
  7975  0009AC  0D02               	mullw	02h
  7976  0009AE  50F3               	movf	(prodl),c,w
  7977  0009B0  0100               	movlb	0	; () banked
  7978  0009B2  25DA               	addwf	(??_CalculateTime25msCounter+0+0)&0ffh,w
  7979  0009B4  6ED9               	movwf	c:fsr2l
  7980  0009B6  50F4               	movf	(prodh),c,w
  7981  0009B8  0100               	movlb	0	; () banked
  7982  0009BA  21DB               	addwfc	(??_CalculateTime25msCounter+0+1)&0ffh,w
  7983  0009BC  6EDA               	movwf	1+c:fsr2l
  7984  0009BE  CFDE F013          	movff	postinc2,(c:?___lwdiv)
  7985  0009C2  CFDD F014          	movff	postdec2,(c:?___lwdiv+1)
  7986  0009C6  0E00               	movlw	high(019h)
  7987  0009C8  6E16               	movwf	(1+((c:?___lwdiv)+02h)),c
  7988  0009CA  0E19               	movlw	low(019h)
  7989  0009CC  6E15               	movwf	(0+((c:?___lwdiv)+02h)),c
  7990  0009CE  EC0F  F00C         	call	___lwdiv	;wreg free
  7991  0009D2  C013  F0B4         	movff	0+?___lwdiv,(_time_on_counter)
  7992  0009D6  C014  F0B5         	movff	1+?___lwdiv,(_time_on_counter+1)
  7993                           	line	169
  7994                           ;YellowFlash.C: 169: time_off_counter=time_off[line][row]/25;
  7995  0009DA  0100               	movlb	0	; () banked
  7996  0009DC  0100               	movlb	0	; () banked
  7997  0009DE  51D9               	movf	((CalculateTime25msCounter@line))&0ffh,w
  7998  0009E0  0D20               	mullw	020h
  7999  0009E2  0E30               	movlw	low(_time_off)
  8000  0009E4  24F3               	addwf	(prodl),c,w
  8001  0009E6  0100               	movlb	0	; () banked
  8002  0009E8  6FDA               	movwf	(??_CalculateTime25msCounter+0+0)&0ffh
  8003  0009EA  0E01               	movlw	high(_time_off)
  8004  0009EC  20F4               	addwfc	prod+1,w
  8005  0009EE  0100               	movlb	0	; () banked
  8006  0009F0  6FDB               	movwf	1+(??_CalculateTime25msCounter+0+0)&0ffh
  8007  0009F2  0100               	movlb	0	; () banked
  8008  0009F4  0100               	movlb	0	; () banked
  8009  0009F6  51D8               	movf	((CalculateTime25msCounter@row))&0ffh,w
  8010  0009F8  0D02               	mullw	02h
  8011  0009FA  50F3               	movf	(prodl),c,w
  8012  0009FC  0100               	movlb	0	; () banked
  8013  0009FE  25DA               	addwf	(??_CalculateTime25msCounter+0+0)&0ffh,w
  8014  000A00  6ED9               	movwf	c:fsr2l
  8015  000A02  50F4               	movf	(prodh),c,w
  8016  000A04  0100               	movlb	0	; () banked
  8017  000A06  21DB               	addwfc	(??_CalculateTime25msCounter+0+1)&0ffh,w
  8018  000A08  6EDA               	movwf	1+c:fsr2l
  8019  000A0A  CFDE F013          	movff	postinc2,(c:?___lwdiv)
  8020  000A0E  CFDD F014          	movff	postdec2,(c:?___lwdiv+1)
  8021  000A12  0E00               	movlw	high(019h)
  8022  000A14  6E16               	movwf	(1+((c:?___lwdiv)+02h)),c
  8023  000A16  0E19               	movlw	low(019h)
  8024  000A18  6E15               	movwf	(0+((c:?___lwdiv)+02h)),c
  8025  000A1A  EC0F  F00C         	call	___lwdiv	;wreg free
  8026  000A1E  C013  F0B2         	movff	0+?___lwdiv,(_time_off_counter)
  8027  000A22  C014  F0B3         	movff	1+?___lwdiv,(_time_off_counter+1)
  8028                           	line	170
  8029                           	
  8030  000A26                     l477:
  8031  000A26  0012               	return
  8032                           	opt stack 0
  8033                           GLOBAL	__end_of_CalculateTime25msCounter
  8034  000A28                     	__end_of_CalculateTime25msCounter:
  8035                           	signat	_CalculateTime25msCounter,8312
  8036                           	global	_HeartbeatTest
  8037                           
  8038 ;; *************** function _HeartbeatTest *****************
  8039 ;; Defined at:
  8040 ;;		line 752 in file "E:\WorkSpace\YellowFlashingController20140317\YellowFlash.C"
  8041 ;; Parameters:    Size  Location     Type
  8042 ;;		None
  8043 ;; Auto vars:     Size  Location     Type
  8044 ;;		None
  8045 ;; Return value:  Size  Location     Type
  8046 ;;		None               void
  8047 ;; Registers used:
  8048 ;;		wreg, fsr2l, fsr2h, status,2, status,0, cstack
  8049 ;; Tracked objects:
  8050 ;;		On entry : 0/0
  8051 ;;		On exit  : 0/0
  8052 ;;		Unchanged: 0/0
  8053 ;; Data sizes:     COMRAM   BANK0   BANK1   BANK2   BANK3   BANK4   BANK5   BANK6   BANK7   BANK8   BANK9  BANK10  BANK1
       1  BANK12  BANK13  BANK14
  8054 ;;      Params:         0       0       0       0       0       0       0       0       0       0       0       0       
       0       0       0       0
  8055 ;;      Locals:         0       0       0       0       0       0       0       0       0       0       0       0       
       0       0       0       0
  8056 ;;      Temps:          1       0       0       0       0       0       0       0       0       0       0       0       
       0       0       0       0
  8057 ;;      Totals:         1       0       0       0       0       0       0       0       0       0       0       0       
       0       0       0       0
  8058 ;;Total ram usage:        1 bytes
  8059 ;; Hardware stack levels used:    1
  8060 ;; Hardware stack levels required when called:    6
  8061 ;; This function calls:
  8062 ;;		_Read_YFlash_CFG
  8063 ;; This function is called by:
  8064 ;;		_main
  8065 ;; This function uses a non-reentrant model
  8066 ;;
  8067                           psect	text20,class=CODE,space=0,reloc=2
  8068                           global __ptext20
  8069  001652                     __ptext20:
  8070                           psect	text20
  8071                           	file	"E:\WorkSpace\YellowFlashingController20140317\YellowFlash.C"
  8072                           	line	752
  8073                           	global	__size_of_HeartbeatTest
  8074  0000                     	__size_of_HeartbeatTest	equ	__end_of_HeartbeatTest-_HeartbeatTest
  8075                           	
  8076  001652                     _HeartbeatTest:
  8077                           	opt	stack 24
  8078                           	line	754
  8079                           	
  8080  001652                     l4215:
  8081                           ;YellowFlash.C: 754: if(time5ms == 1)
  8082  001652  0100               	movlb	(_time5ms/8) >> 8
  8083  001654  A44D               	btfss	(_time5ms/8),c,(_time5ms)&7
  8084  001656  D001               	goto	u2931
  8085  001658  D001               	goto	u2930
  8086  00165A                     u2931:
  8087  00165A  D035               	goto	l589
  8088  00165C                     u2930:
  8089                           	line	756
  8090                           	
  8091  00165C                     l4217:
  8092                           ;YellowFlash.C: 755: {
  8093                           ;YellowFlash.C: 756: time5ms = 0;
  8094  00165C  0100               	movlb	(_time5ms/8) >> 8
  8095  00165E  944D               	bcf	(_time5ms/8),c,(_time5ms)&7
  8096                           	line	757
  8097                           	
  8098  001660                     l4219:
  8099                           ;YellowFlash.C: 757: t500ms_count++;
  8100  001660  0100               	movlb	0	; () banked
  8101  001662  0100               	movlb	0	; () banked
  8102  001664  2BBF               	incf	((_t500ms_count))&0ffh
  8103                           	line	758
  8104                           	
  8105  001666                     l4221:
  8106                           ;YellowFlash.C: 758: if(t500ms_count>=100)
  8107  001666  0E63               	movlw	(064h-1)
  8108  001668  0100               	movlb	0	; () banked
  8109  00166A  0100               	movlb	0	; () banked
  8110  00166C  65BF               	cpfsgt	((_t500ms_count))&0ffh
  8111  00166E  D001               	goto	u2941
  8112  001670  D001               	goto	u2940
  8113  001672                     u2941:
  8114  001672  D029               	goto	l589
  8115  001674                     u2940:
  8116                           	line	760
  8117                           	
  8118  001674                     l4223:
  8119                           ;YellowFlash.C: 759: {
  8120                           ;YellowFlash.C: 760: t500ms_count=0;
  8121  001674  6E1A               	movwf	(??_HeartbeatTest+0+0)&0ffh,c
  8122  001676  0E00               	movlw	low(0)
  8123  001678  0100               	movlb	0	; () banked
  8124  00167A  0100               	movlb	0	; () banked
  8125  00167C  6FBF               	movwf	((_t500ms_count))&0ffh
  8126  00167E  501A               	movf	(??_HeartbeatTest+0+0)&0ffh,c,w
  8127                           	line	761
  8128                           	
  8129  001680                     l4225:
  8130                           ;YellowFlash.C: 761: heartbeat++;
  8131  001680  0100               	movlb	0	; () banked
  8132  001682  0100               	movlb	0	; () banked
  8133  001684  2BB7               	incf	((_heartbeat))&0ffh
  8134                           	line	763
  8135                           	
  8136  001686                     l4227:
  8137                           ;YellowFlash.C: 763: if(heartbeat>=4)
  8138  001686  0E03               	movlw	(04h-1)
  8139  001688  0100               	movlb	0	; () banked
  8140  00168A  0100               	movlb	0	; () banked
  8141  00168C  65B7               	cpfsgt	((_heartbeat))&0ffh
  8142  00168E  D001               	goto	u2951
  8143  001690  D001               	goto	u2950
  8144  001692                     u2951:
  8145  001692  D019               	goto	l589
  8146  001694                     u2950:
  8147                           	line	765
  8148                           	
  8149  001694                     l4229:
  8150                           ;YellowFlash.C: 764: {
  8151                           ;YellowFlash.C: 765: heartbeat=0;
  8152  001694  6E1A               	movwf	(??_HeartbeatTest+0+0)&0ffh,c
  8153  001696  0E00               	movlw	low(0)
  8154  001698  0100               	movlb	0	; () banked
  8155  00169A  0100               	movlb	0	; () banked
  8156  00169C  6FB7               	movwf	((_heartbeat))&0ffh
  8157  00169E  501A               	movf	(??_HeartbeatTest+0+0)&0ffh,c,w
  8158                           	line	766
  8159                           	
  8160  0016A0                     l4231:
  8161                           ;YellowFlash.C: 766: RD2=1;
  8162  0016A0  8483               	bsf	c:(31770/8),(31770)&7	;volatile
  8163                           	line	767
  8164                           	
  8165  0016A2                     l4233:
  8166                           ;YellowFlash.C: 767: TMR0ON = 0;
  8167  0016A2  9ED5               	bcf	c:(32431/8),(32431)&7	;volatile
  8168                           	line	768
  8169                           	
  8170  0016A4                     l4235:
  8171                           ;YellowFlash.C: 768: TMR0IF = 0;
  8172  0016A4  94F2               	bcf	c:(32658/8),(32658)&7	;volatile
  8173                           	line	769
  8174                           ;YellowFlash.C: 769: yflash_status=0x06;
  8175  0016A6  6E1A               	movwf	(??_HeartbeatTest+0+0)&0ffh,c
  8176  0016A8  0E06               	movlw	low(06h)
  8177  0016AA  6E42               	movwf	((c:_yflash_status)),c
  8178  0016AC  501A               	movf	(??_HeartbeatTest+0+0)&0ffh,c,w
  8179                           	line	770
  8180                           	
  8181  0016AE                     l4237:
  8182                           ;YellowFlash.C: 770: Read_YFlash_CFG();
  8183  0016AE  EC9F  F009         	call	_Read_YFlash_CFG	;wreg free
  8184                           	line	771
  8185                           	
  8186  0016B2                     l4239:
  8187                           ;YellowFlash.C: 771: T1CON |= 0x01;
  8188  0016B2  80CD               	bsf	(0+(0/8)+(c:4045)),c,(0)&7	;volatile
  8189                           	line	772
  8190                           	
  8191  0016B4                     l4241:
  8192                           ;YellowFlash.C: 772: turnoff=0x01;
  8193  0016B4  6E1A               	movwf	(??_HeartbeatTest+0+0)&0ffh,c
  8194  0016B6  0E01               	movlw	low(01h)
  8195  0016B8  6E4A               	movwf	((c:_turnoff)),c
  8196  0016BA  501A               	movf	(??_HeartbeatTest+0+0)&0ffh,c,w
  8197                           	line	773
  8198                           	
  8199  0016BC                     l4243:
  8200                           ;YellowFlash.C: 773: switchmode=1;
  8201  0016BC  0100               	movlb	(_switchmode/8) >> 8
  8202  0016BE  824D               	bsf	(_switchmode/8),c,(_switchmode)&7
  8203  0016C0  D002               	goto	l589
  8204                           	line	775
  8205                           	
  8206  0016C2                     l588:
  8207  0016C2  D001               	goto	l589
  8208                           	line	778
  8209                           	
  8210  0016C4                     l587:
  8211  0016C4  D000               	goto	l589
  8212                           	line	781
  8213                           	
  8214  0016C6                     l586:
  8215                           	line	783
  8216                           	
  8217  0016C6                     l589:
  8218  0016C6  0012               	return
  8219                           	opt stack 0
  8220                           GLOBAL	__end_of_HeartbeatTest
  8221  0016C8                     	__end_of_HeartbeatTest:
  8222                           	signat	_HeartbeatTest,88
  8223                           	global	_Read_YFlash_CFG
  8224                           
  8225 ;; *************** function _Read_YFlash_CFG *****************
  8226 ;; Defined at:
  8227 ;;		line 448 in file "E:\WorkSpace\YellowFlashingController20140317\YellowFlash.C"
  8228 ;; Parameters:    Size  Location     Type
  8229 ;;		None
  8230 ;; Auto vars:     Size  Location     Type
  8231 ;;		None
  8232 ;; Return value:  Size  Location     Type
  8233 ;;		None               void
  8234 ;; Registers used:
  8235 ;;		wreg, fsr2l, fsr2h, status,2, status,0, cstack
  8236 ;; Tracked objects:
  8237 ;;		On entry : 0/0
  8238 ;;		On exit  : 0/0
  8239 ;;		Unchanged: 0/0
  8240 ;; Data sizes:     COMRAM   BANK0   BANK1   BANK2   BANK3   BANK4   BANK5   BANK6   BANK7   BANK8   BANK9  BANK10  BANK1
       1  BANK12  BANK13  BANK14
  8241 ;;      Params:         0       0       0       0       0       0       0       0       0       0       0       0       
       0       0       0       0
  8242 ;;      Locals:         0       0       0       0       0       0       0       0       0       0       0       0       
       0       0       0       0
  8243 ;;      Temps:          1       0       0       0       0       0       0       0       0       0       0       0       
       0       0       0       0
  8244 ;;      Totals:         1       0       0       0       0       0       0       0       0       0       0       0       
       0       0       0       0
  8245 ;;Total ram usage:        1 bytes
  8246 ;; Hardware stack levels used:    1
  8247 ;; Hardware stack levels required when called:    5
  8248 ;; This function calls:
  8249 ;;		_EEPROMRead
  8250 ;; This function is called by:
  8251 ;;		_CANDATAAnalyzing
  8252 ;;		_HeartbeatTest
  8253 ;; This function uses a non-reentrant model
  8254 ;;
  8255                           psect	text21,class=CODE,space=0,reloc=2
  8256                           global __ptext21
  8257  00133E                     __ptext21:
  8258                           psect	text21
  8259                           	file	"E:\WorkSpace\YellowFlashingController20140317\YellowFlash.C"
  8260                           	line	448
  8261                           	global	__size_of_Read_YFlash_CFG
  8262  0000                     	__size_of_Read_YFlash_CFG	equ	__end_of_Read_YFlash_CFG-_Read_YFlash_CFG
  8263                           	
  8264  00133E                     _Read_YFlash_CFG:
  8265                           	opt	stack 24
  8266                           	line	449
  8267                           	
  8268  00133E                     l3953:
  8269                           ;YellowFlash.C: 449: eeprom_addr = 0x0005;
  8270  00133E  0E00               	movlw	high(05h)
  8271  001340  6E44               	movwf	((c:_eeprom_addr+1)),c
  8272  001342  0E05               	movlw	low(05h)
  8273  001344  6E43               	movwf	((c:_eeprom_addr)),c
  8274                           	line	450
  8275                           	
  8276  001346                     l3955:
  8277                           ;YellowFlash.C: 450: eeprom_num = 2;
  8278  001346  6E19               	movwf	(??_Read_YFlash_CFG+0+0)&0ffh,c
  8279  001348  0E02               	movlw	low(02h)
  8280  00134A  6E4C               	movwf	((c:_eeprom_num)),c
  8281  00134C  5019               	movf	(??_Read_YFlash_CFG+0+0)&0ffh,c,w
  8282                           	line	451
  8283                           	
  8284  00134E                     l3957:
  8285                           ;YellowFlash.C: 451: EEPROMRead(&eeprom_addr,&eeprom_num,&readwrite);
  8286  00134E  0E00               	movlw	high((c:_eeprom_addr))
  8287  001350  6E14               	movwf	((c:?_EEPROMRead+1)),c
  8288  001352  0E43               	movlw	low((c:_eeprom_addr))
  8289  001354  6E13               	movwf	((c:?_EEPROMRead)),c
  8290  001356  0E00               	movlw	high((c:_eeprom_num))
  8291  001358  6E16               	movwf	(1+((c:?_EEPROMRead)+02h)),c
  8292  00135A  0E4C               	movlw	low((c:_eeprom_num))
  8293  00135C  6E15               	movwf	(0+((c:?_EEPROMRead)+02h)),c
  8294  00135E  0E00               	movlw	high((c:_readwrite))
  8295  001360  6E18               	movwf	(1+((c:?_EEPROMRead)+04h)),c
  8296  001362  0E45               	movlw	low((c:_readwrite))
  8297  001364  6E17               	movwf	(0+((c:?_EEPROMRead)+04h)),c
  8298  001366  EC74  F00C         	call	_EEPROMRead	;wreg free
  8299                           	line	452
  8300                           	
  8301  00136A                     l3959:
  8302                           ;YellowFlash.C: 452: time_on_counter=readwrite[0];
  8303  00136A  0100               	movlb	0	; () banked
  8304  00136C  C045  F0B4         	movff	(c:_readwrite),(_time_on_counter)
  8305  001370  0100               	movlb	0	; () banked
  8306  001372  0100               	movlb	0	; () banked
  8307  001374  6BB5               	clrf	((_time_on_counter+1))&0ffh
  8308                           	line	453
  8309                           	
  8310  001376                     l3961:
  8311                           ;YellowFlash.C: 453: time_counters=readwrite[1];
  8312  001376  C046  F03C         	movff	0+((c:_readwrite)+01h),(c:_time_counters)
  8313  00137A  6A3D               	clrf	((c:_time_counters+1)),c
  8314                           	line	455
  8315                           	
  8316  00137C                     l3963:
  8317                           ;YellowFlash.C: 455: time_on_counter|=time_counters;
  8318  00137C  503C               	movf	((c:_time_counters)),c,w
  8319  00137E  0100               	movlb	0	; () banked
  8320  001380  0100               	movlb	0	; () banked
  8321  001382  13B4               	iorwf	((_time_on_counter))&0ffh
  8322  001384  503D               	movf	((c:_time_counters+1)),c,w
  8323  001386  0100               	movlb	0	; () banked
  8324  001388  0100               	movlb	0	; () banked
  8325  00138A  13B5               	iorwf	((_time_on_counter+1))&0ffh
  8326                           
  8327                           	line	458
  8328                           	
  8329  00138C                     l3965:
  8330                           ;YellowFlash.C: 458: eeprom_addr = 0x0007;
  8331  00138C  0E00               	movlw	high(07h)
  8332  00138E  6E44               	movwf	((c:_eeprom_addr+1)),c
  8333  001390  0E07               	movlw	low(07h)
  8334  001392  6E43               	movwf	((c:_eeprom_addr)),c
  8335                           	line	459
  8336                           	
  8337  001394                     l3967:
  8338                           ;YellowFlash.C: 459: eeprom_num = 2;
  8339  001394  6E19               	movwf	(??_Read_YFlash_CFG+0+0)&0ffh,c
  8340  001396  0E02               	movlw	low(02h)
  8341  001398  6E4C               	movwf	((c:_eeprom_num)),c
  8342  00139A  5019               	movf	(??_Read_YFlash_CFG+0+0)&0ffh,c,w
  8343                           	line	460
  8344                           	
  8345  00139C                     l3969:
  8346                           ;YellowFlash.C: 460: EEPROMRead(&eeprom_addr,&eeprom_num,&readwrite);
  8347  00139C  0E00               	movlw	high((c:_eeprom_addr))
  8348  00139E  6E14               	movwf	((c:?_EEPROMRead+1)),c
  8349  0013A0  0E43               	movlw	low((c:_eeprom_addr))
  8350  0013A2  6E13               	movwf	((c:?_EEPROMRead)),c
  8351  0013A4  0E00               	movlw	high((c:_eeprom_num))
  8352  0013A6  6E16               	movwf	(1+((c:?_EEPROMRead)+02h)),c
  8353  0013A8  0E4C               	movlw	low((c:_eeprom_num))
  8354  0013AA  6E15               	movwf	(0+((c:?_EEPROMRead)+02h)),c
  8355  0013AC  0E00               	movlw	high((c:_readwrite))
  8356  0013AE  6E18               	movwf	(1+((c:?_EEPROMRead)+04h)),c
  8357  0013B0  0E45               	movlw	low((c:_readwrite))
  8358  0013B2  6E17               	movwf	(0+((c:?_EEPROMRead)+04h)),c
  8359  0013B4  EC74  F00C         	call	_EEPROMRead	;wreg free
  8360                           	line	461
  8361                           	
  8362  0013B8                     l3971:
  8363                           ;YellowFlash.C: 461: time_off_counter=readwrite[0];
  8364  0013B8  0100               	movlb	0	; () banked
  8365  0013BA  C045  F0B2         	movff	(c:_readwrite),(_time_off_counter)
  8366  0013BE  0100               	movlb	0	; () banked
  8367  0013C0  0100               	movlb	0	; () banked
  8368  0013C2  6BB3               	clrf	((_time_off_counter+1))&0ffh
  8369                           	line	462
  8370                           	
  8371  0013C4                     l3973:
  8372                           ;YellowFlash.C: 462: time_counters=readwrite[1];
  8373  0013C4  C046  F03C         	movff	0+((c:_readwrite)+01h),(c:_time_counters)
  8374  0013C8  6A3D               	clrf	((c:_time_counters+1)),c
  8375                           	line	464
  8376                           ;YellowFlash.C: 464: time_off_counter|=time_counters;
  8377  0013CA  503C               	movf	((c:_time_counters)),c,w
  8378  0013CC  0100               	movlb	0	; () banked
  8379  0013CE  0100               	movlb	0	; () banked
  8380  0013D0  13B2               	iorwf	((_time_off_counter))&0ffh
  8381  0013D2  503D               	movf	((c:_time_counters+1)),c,w
  8382  0013D4  0100               	movlb	0	; () banked
  8383  0013D6  0100               	movlb	0	; () banked
  8384  0013D8  13B3               	iorwf	((_time_off_counter+1))&0ffh
  8385                           
  8386                           	line	467
  8387                           	
  8388  0013DA                     l3975:
  8389                           ;YellowFlash.C: 467: eeprom_addr = 0x0009;
  8390  0013DA  0E00               	movlw	high(09h)
  8391  0013DC  6E44               	movwf	((c:_eeprom_addr+1)),c
  8392  0013DE  0E09               	movlw	low(09h)
  8393  0013E0  6E43               	movwf	((c:_eeprom_addr)),c
  8394                           	line	468
  8395                           	
  8396  0013E2                     l3977:
  8397                           ;YellowFlash.C: 468: eeprom_num = 2;
  8398  0013E2  6E19               	movwf	(??_Read_YFlash_CFG+0+0)&0ffh,c
  8399  0013E4  0E02               	movlw	low(02h)
  8400  0013E6  6E4C               	movwf	((c:_eeprom_num)),c
  8401  0013E8  5019               	movf	(??_Read_YFlash_CFG+0+0)&0ffh,c,w
  8402                           	line	469
  8403                           	
  8404  0013EA                     l3979:
  8405                           ;YellowFlash.C: 469: EEPROMRead(&eeprom_addr,&eeprom_num,&yflash_CFG);
  8406  0013EA  0E00               	movlw	high((c:_eeprom_addr))
  8407  0013EC  6E14               	movwf	((c:?_EEPROMRead+1)),c
  8408  0013EE  0E43               	movlw	low((c:_eeprom_addr))
  8409  0013F0  6E13               	movwf	((c:?_EEPROMRead)),c
  8410  0013F2  0E00               	movlw	high((c:_eeprom_num))
  8411  0013F4  6E16               	movwf	(1+((c:?_EEPROMRead)+02h)),c
  8412  0013F6  0E4C               	movlw	low((c:_eeprom_num))
  8413  0013F8  6E15               	movwf	(0+((c:?_EEPROMRead)+02h)),c
  8414  0013FA  0E00               	movlw	high((c:_yflash_CFG))
  8415  0013FC  6E18               	movwf	(1+((c:?_EEPROMRead)+04h)),c
  8416  0013FE  0E47               	movlw	low((c:_yflash_CFG))
  8417  001400  6E17               	movwf	(0+((c:?_EEPROMRead)+04h)),c
  8418  001402  EC74  F00C         	call	_EEPROMRead	;wreg free
  8419                           	line	470
  8420                           	
  8421  001406                     l3981:
  8422                           ;YellowFlash.C: 470: run_mode=(yflash_CFG[1]&0x03);
  8423  001406  5048               	movf	(0+((c:_yflash_CFG)+01h)),c,w
  8424  001408  0B03               	andlw	low(03h)
  8425  00140A  6E41               	movwf	((c:_run_mode)),c
  8426                           	line	471
  8427                           	
  8428  00140C                     l539:
  8429  00140C  0012               	return
  8430                           	opt stack 0
  8431                           GLOBAL	__end_of_Read_YFlash_CFG
  8432  00140E                     	__end_of_Read_YFlash_CFG:
  8433                           	signat	_Read_YFlash_CFG,88
  8434                           	global	_EEPROMRead
  8435                           
  8436 ;; *************** function _EEPROMRead *****************
  8437 ;; Defined at:
  8438 ;;		line 32 in file "E:\WorkSpace\YellowFlashingController20140317\mcu.h"
  8439 ;; Parameters:    Size  Location     Type
  8440 ;;  addr            2   18[COMRAM] PTR unsigned char 
  8441 ;;		 -> eeprom_addr(2), 
  8442 ;;  num             2   20[COMRAM] PTR unsigned char 
  8443 ;;		 -> eeprom_num(1), 
  8444 ;;  dat             2   22[COMRAM] PTR unsigned char 
  8445 ;;		 -> yflash_CFG(2), readwrite(2), CANSdata(8), 
  8446 ;; Auto vars:     Size  Location     Type
  8447 ;;		None
  8448 ;; Return value:  Size  Location     Type
  8449 ;;		None               void
  8450 ;; Registers used:
  8451 ;;		wreg, fsr2l, fsr2h, status,2, status,0
  8452 ;; Tracked objects:
  8453 ;;		On entry : 0/0
  8454 ;;		On exit  : 0/0
  8455 ;;		Unchanged: 0/0
  8456 ;; Data sizes:     COMRAM   BANK0   BANK1   BANK2   BANK3   BANK4   BANK5   BANK6   BANK7   BANK8   BANK9  BANK10  BANK1
       1  BANK12  BANK13  BANK14
  8457 ;;      Params:         6       0       0       0       0       0       0       0       0       0       0       0       
       0       0       0       0
  8458 ;;      Locals:         0       0       0       0       0       0       0       0       0       0       0       0       
       0       0       0       0
  8459 ;;      Temps:          0       0       0       0       0       0       0       0       0       0       0       0       
       0       0       0       0
  8460 ;;      Totals:         6       0       0       0       0       0       0       0       0       0       0       0       
       0       0       0       0
  8461 ;;Total ram usage:        6 bytes
  8462 ;; Hardware stack levels used:    1
  8463 ;; Hardware stack levels required when called:    4
  8464 ;; This function calls:
  8465 ;;		Nothing
  8466 ;; This function is called by:
  8467 ;;		_CANSendID
  8468 ;;		_Read_YFlash_CFG
  8469 ;;		_YFlashNewConfigure
  8470 ;;		_CANDATAAnalyzing
  8471 ;; This function uses a non-reentrant model
  8472 ;;
  8473                           psect	text22,class=CODE,space=0,reloc=2
  8474                           global __ptext22
  8475  0018E8                     __ptext22:
  8476                           psect	text22
  8477                           	file	"E:\WorkSpace\YellowFlashingController20140317\mcu.h"
  8478                           	line	32
  8479                           	global	__size_of_EEPROMRead
  8480  0000                     	__size_of_EEPROMRead	equ	__end_of_EEPROMRead-_EEPROMRead
  8481                           	
  8482  0018E8                     _EEPROMRead:
  8483                           	opt	stack 24
  8484                           	line	33
  8485                           ;mcu.h: 33: do
  8486                           	
  8487  0018E8                     l369:
  8488                           	line	35
  8489                           	
  8490  0018E8                     l3775:
  8491                           ;mcu.h: 34: {
  8492                           ;mcu.h: 35: EEADRH = (*addr)>>8;
  8493  0018E8  0E00               	movlw	low(0)
  8494  0018EA  6E75               	movwf	((c:3957)),c	;volatile
  8495                           	line	36
  8496                           	
  8497  0018EC                     l3777:
  8498                           ;mcu.h: 36: EEADR = (*addr);
  8499  0018EC  C013  FFD9         	movff	(c:EEPROMRead@addr),fsr2l
  8500  0018F0  C014  FFDA         	movff	(c:EEPROMRead@addr+1),fsr2h
  8501  0018F4  50DF               	movf	indf2,w
  8502  0018F6  6E74               	movwf	((c:3956)),c	;volatile
  8503                           	line	37
  8504                           	
  8505  0018F8                     l3779:
  8506                           ;mcu.h: 37: (*addr)++;
  8507  0018F8  C013  FFD9         	movff	(c:EEPROMRead@addr),fsr2l
  8508  0018FC  C014  FFDA         	movff	(c:EEPROMRead@addr+1),fsr2h
  8509  001900  2ADF               	incf	indf2
  8510                           
  8511                           	line	39
  8512                           	
  8513  001902                     l3781:
  8514                           ;mcu.h: 39: EEDATA = 0;
  8515  001902  0E00               	movlw	low(0)
  8516  001904  6E73               	movwf	((c:3955)),c	;volatile
  8517                           	line	41
  8518                           	
  8519  001906                     l3783:
  8520                           ;mcu.h: 41: EECON1 &= 0x3f;
  8521  001906  0E3F               	movlw	(03Fh)&0ffh
  8522  001908  167F               	andwf	((c:3967)),c	;volatile
  8523                           	line	44
  8524                           	
  8525  00190A                     l3785:
  8526                           ;mcu.h: 44: EECON1 |= 0x01;
  8527  00190A  807F               	bsf	(0+(0/8)+(c:3967)),c,(0)&7	;volatile
  8528                           	line	45
  8529                           	
  8530  00190C                     l3787:
  8531                           # 45 "E:\WorkSpace\YellowFlashingController20140317\mcu.h"
  8532  00190C  F000               NOP ;# 
  8533                           psect	text22
  8534                           	line	47
  8535                           	
  8536  00190E                     l3789:
  8537                           ;mcu.h: 47: (*dat) = EEDATA;
  8538  00190E  C017  FFD9         	movff	(c:EEPROMRead@dat),fsr2l
  8539  001912  C018  FFDA         	movff	(c:EEPROMRead@dat+1),fsr2h
  8540  001916  CF73 FFDF          	movff	(c:3955),indf2	;volatile
  8541                           
  8542                           	line	48
  8543                           	
  8544  00191A                     l3791:
  8545                           ;mcu.h: 48: dat++;
  8546  00191A  4A17               	infsnz	((c:EEPROMRead@dat)),c
  8547  00191C  2A18               	incf	((c:EEPROMRead@dat+1)),c
  8548                           	line	50
  8549                           	
  8550  00191E                     l3793:
  8551                           ;mcu.h: 49: }
  8552                           ;mcu.h: 50: while((*num)--);
  8553  00191E  0EFF               	movlw	(0FFh)&0ffh
  8554  001920  C015  FFD9         	movff	(c:EEPROMRead@num),fsr2l
  8555  001924  C016  FFDA         	movff	(c:EEPROMRead@num+1),fsr2h
  8556  001928  06DF               	decf	indf2
  8557                           
  8558  00192A  62DF               	cpfseq	indf2
  8559  00192C  D001               	goto	u2621
  8560  00192E  D001               	goto	u2620
  8561  001930                     u2621:
  8562  001930  D7DB               	goto	l369
  8563  001932                     u2620:
  8564  001932  D000               	goto	l371
  8565                           	
  8566  001934                     l370:
  8567                           	line	52
  8568                           	
  8569  001934                     l371:
  8570  001934  0012               	return
  8571                           	opt stack 0
  8572                           GLOBAL	__end_of_EEPROMRead
  8573  001936                     	__end_of_EEPROMRead:
  8574                           	signat	_EEPROMRead,12408
  8575                           	global	___ftmul
  8576                           
  8577 ;; *************** function ___ftmul *****************
  8578 ;; Defined at:
  8579 ;;		line 52 in file "C:\Program Files\HI-TECH Software\PICC-18\9.80\sources\ftmul.c"
  8580 ;; Parameters:    Size  Location     Type
  8581 ;;  f1              3   26[COMRAM] float 
  8582 ;;  f2              3   29[COMRAM] float 
  8583 ;; Auto vars:     Size  Location     Type
  8584 ;;  f3_as_produc    3   38[COMRAM] unsigned um
  8585 ;;  sign            1   42[COMRAM] unsigned char 
  8586 ;;  cntr            1   41[COMRAM] unsigned char 
  8587 ;;  exp             1   37[COMRAM] unsigned char 
  8588 ;; Return value:  Size  Location     Type
  8589 ;;                  3   26[COMRAM] float 
  8590 ;; Registers used:
  8591 ;;		wreg, status,2, status,0, cstack
  8592 ;; Tracked objects:
  8593 ;;		On entry : F/0
  8594 ;;		On exit  : 0/0
  8595 ;;		Unchanged: 0/0
  8596 ;; Data sizes:     COMRAM   BANK0   BANK1   BANK2   BANK3   BANK4   BANK5   BANK6   BANK7   BANK8   BANK9  BANK10  BANK1
       1  BANK12  BANK13  BANK14
  8597 ;;      Params:         6       0       0       0       0       0       0       0       0       0       0       0       
       0       0       0       0
  8598 ;;      Locals:         6       0       0       0       0       0       0       0       0       0       0       0       
       0       0       0       0
  8599 ;;      Temps:          5       0       0       0       0       0       0       0       0       0       0       0       
       0       0       0       0
  8600 ;;      Totals:        17       0       0       0       0       0       0       0       0       0       0       0       
       0       0       0       0
  8601 ;;Total ram usage:       17 bytes
  8602 ;; Hardware stack levels used:    1
  8603 ;; Hardware stack levels required when called:    5
  8604 ;; This function calls:
  8605 ;;		___ftpack
  8606 ;; This function is called by:
  8607 ;;		_CalculateTime25msCounter
  8608 ;;		___asftmul
  8609 ;; This function uses a non-reentrant model
  8610 ;;
  8611                           psect	text23,class=CODE,space=0,reloc=2
  8612                           global __ptext23
  8613  000E12                     __ptext23:
  8614                           psect	text23
  8615                           	file	"C:\Program Files\HI-TECH Software\PICC-18\9.80\sources\ftmul.c"
  8616                           	global	__size_of___ftmul
  8617  0000                     	__size_of___ftmul	equ	__end_of___ftmul-___ftmul
  8618                           	
  8619  000E12                     ___ftmul:
  8620                           	opt	stack 22
  8621                           	line	56
  8622                           	
  8623  000E12                     l5155:; BSR set to: 0
  8624                           
  8625  000E12  0E0F               	movlw	(0Fh)&0ffh
  8626  000E14  6E21               	movwf	(??___ftmul+0+0)&0ffh,c
  8627  000E16  C01B  F022         	movff	(c:___ftmul@f1),??___ftmul+1+0
  8628  000E1A  C01C  F023         	movff	(c:___ftmul@f1+1),??___ftmul+1+0+1
  8629  000E1E  C01D  F024         	movff	(c:___ftmul@f1+2),??___ftmul+1+0+2
  8630  000E22  2821               	incf	((??___ftmul+0+0)),c,w
  8631  000E24  6E25               	movwf	(??___ftmul+4+0)&0ffh,c
  8632  000E26  D004               	goto	u4240
  8633  000E28                     u4245:
  8634  000E28  90D8               	bcf	status,0
  8635  000E2A  3224               	rrcf	(??___ftmul+1+2),c
  8636  000E2C  3223               	rrcf	(??___ftmul+1+1),c
  8637  000E2E  3222               	rrcf	(??___ftmul+1+0),c
  8638  000E30                     u4240:
  8639  000E30  2E25               	decfsz	(??___ftmul+4+0)&0ffh,c
  8640  000E32  D7FA               	goto	u4245
  8641  000E34  5022               	movf	(??___ftmul+1+0),c,w
  8642  000E36  6E26               	movwf	((c:___ftmul@exp)),c
  8643  000E38  6626               	tstfsz	((c:___ftmul@exp))&0ffh
  8644  000E3A  D001               	goto	u4251
  8645  000E3C  D001               	goto	u4250
  8646  000E3E                     u4251:
  8647  000E3E  D008               	goto	l5161
  8648  000E40                     u4250:
  8649                           	line	57
  8650                           	
  8651  000E40                     l5157:
  8652  000E40  0E00               	movlw	low(float24(0.0000000000000000))
  8653  000E42  6E1B               	movwf	((c:?___ftmul)),c
  8654  000E44  0E00               	movlw	high(float24(0.0000000000000000))
  8655  000E46  6E1C               	movwf	((c:?___ftmul+1)),c
  8656  000E48  0E00               	movlw	low highword(float24(0.0000000000000000))
  8657  000E4A  6E1D               	movwf	((c:?___ftmul+2)),c
  8658                           
  8659  000E4C  D080               	goto	l931
  8660                           	
  8661  000E4E                     l5159:
  8662  000E4E  D07F               	goto	l931
  8663                           	
  8664  000E50                     l930:
  8665                           	line	58
  8666                           	
  8667  000E50                     l5161:
  8668  000E50  0E0F               	movlw	(0Fh)&0ffh
  8669  000E52  6E21               	movwf	(??___ftmul+0+0)&0ffh,c
  8670  000E54  C01E  F022         	movff	(c:___ftmul@f2),??___ftmul+1+0
  8671  000E58  C01F  F023         	movff	(c:___ftmul@f2+1),??___ftmul+1+0+1
  8672  000E5C  C020  F024         	movff	(c:___ftmul@f2+2),??___ftmul+1+0+2
  8673  000E60  2821               	incf	((??___ftmul+0+0)),c,w
  8674  000E62  6E25               	movwf	(??___ftmul+4+0)&0ffh,c
  8675  000E64  D004               	goto	u4260
  8676  000E66                     u4265:
  8677  000E66  90D8               	bcf	status,0
  8678  000E68  3224               	rrcf	(??___ftmul+1+2),c
  8679  000E6A  3223               	rrcf	(??___ftmul+1+1),c
  8680  000E6C  3222               	rrcf	(??___ftmul+1+0),c
  8681  000E6E                     u4260:
  8682  000E6E  2E25               	decfsz	(??___ftmul+4+0)&0ffh,c
  8683  000E70  D7FA               	goto	u4265
  8684  000E72  5022               	movf	(??___ftmul+1+0),c,w
  8685  000E74  6E2B               	movwf	((c:___ftmul@sign)),c
  8686  000E76  662B               	tstfsz	((c:___ftmul@sign))&0ffh
  8687  000E78  D001               	goto	u4271
  8688  000E7A  D001               	goto	u4270
  8689  000E7C                     u4271:
  8690  000E7C  D008               	goto	l5167
  8691  000E7E                     u4270:
  8692                           	line	59
  8693                           	
  8694  000E7E                     l5163:
  8695  000E7E  0E00               	movlw	low(float24(0.0000000000000000))
  8696  000E80  6E1B               	movwf	((c:?___ftmul)),c
  8697  000E82  0E00               	movlw	high(float24(0.0000000000000000))
  8698  000E84  6E1C               	movwf	((c:?___ftmul+1)),c
  8699  000E86  0E00               	movlw	low highword(float24(0.0000000000000000))
  8700  000E88  6E1D               	movwf	((c:?___ftmul+2)),c
  8701                           
  8702  000E8A  D061               	goto	l931
  8703                           	
  8704  000E8C                     l5165:
  8705  000E8C  D060               	goto	l931
  8706                           	
  8707  000E8E                     l932:
  8708                           	line	60
  8709                           	
  8710  000E8E                     l5167:
  8711  000E8E  502B               	movf	((c:___ftmul@sign)),c,w
  8712  000E90  0F7B               	addlw	low(07Bh)
  8713  000E92  2626               	addwf	((c:___ftmul@exp)),c
  8714                           	line	61
  8715                           	
  8716  000E94                     l5169:
  8717  000E94  C01D  F02B         	movff	0+2+(c:___ftmul@f1),(c:___ftmul@sign)
  8718                           	line	62
  8719  000E98  5020               	movf	(0+2+(c:___ftmul@f2))&0ffh,w
  8720  000E9A  1A2B               	xorwf	((c:___ftmul@sign)),c
  8721                           	line	63
  8722  000E9C  0E80               	movlw	(080h)&0ffh
  8723  000E9E  162B               	andwf	((c:___ftmul@sign)),c
  8724                           	line	64
  8725                           	
  8726  000EA0                     l5171:
  8727  000EA0  8E1C               	bsf	(0+(15/8)+(c:___ftmul@f1)),c,(15)&7
  8728                           	line	66
  8729                           	
  8730  000EA2                     l5173:
  8731  000EA2  8E1F               	bsf	(0+(15/8)+(c:___ftmul@f2)),c,(15)&7
  8732                           	line	67
  8733                           	
  8734  000EA4                     l5175:
  8735  000EA4  0EFF               	movlw	low(0FFFFh)
  8736  000EA6  161E               	andwf	((c:___ftmul@f2)),c
  8737  000EA8  0EFF               	movlw	high(0FFFFh)
  8738  000EAA  161F               	andwf	((c:___ftmul@f2+1)),c
  8739  000EAC  0E00               	movlw	low highword(0FFFFh)
  8740  000EAE  1620               	andwf	((c:___ftmul@f2+2)),c
  8741                           
  8742                           	line	68
  8743                           	
  8744  000EB0                     l5177:
  8745  000EB0  0E00               	movlw	low(0)
  8746  000EB2  6E27               	movwf	((c:___ftmul@f3_as_product)),c
  8747  000EB4  0E00               	movlw	high(0)
  8748  000EB6  6E28               	movwf	((c:___ftmul@f3_as_product+1)),c
  8749  000EB8  0E00               	movlw	low highword(0)
  8750  000EBA  6E29               	movwf	((c:___ftmul@f3_as_product+2)),c
  8751                           
  8752                           	line	69
  8753                           	
  8754  000EBC                     l5179:
  8755  000EBC  6E21               	movwf	(??___ftmul+0+0)&0ffh,c
  8756  000EBE  0E07               	movlw	low(07h)
  8757  000EC0  6E2A               	movwf	((c:___ftmul@cntr)),c
  8758  000EC2  5021               	movf	(??___ftmul+0+0)&0ffh,c,w
  8759  000EC4  D000               	goto	l5181
  8760                           	line	70
  8761                           	
  8762  000EC6                     l933:
  8763                           	line	71
  8764                           	
  8765  000EC6                     l5181:
  8766                           	
  8767  000EC6  A01B               	btfss	((c:___ftmul@f1)),c,(0)&7
  8768  000EC8  D001               	goto	u4281
  8769  000ECA  D001               	goto	u4280
  8770  000ECC                     u4281:
  8771  000ECC  D007               	goto	l5185
  8772  000ECE                     u4280:
  8773                           	line	72
  8774                           	
  8775  000ECE                     l5183:
  8776  000ECE  501E               	movf	((c:___ftmul@f2)),c,w
  8777  000ED0  2627               	addwf	((c:___ftmul@f3_as_product)),c
  8778  000ED2  501F               	movf	((c:___ftmul@f2+1)),c,w
  8779  000ED4  2228               	addwfc	((c:___ftmul@f3_as_product+1)),c
  8780  000ED6  5020               	movf	((c:___ftmul@f2+2)),c,w
  8781  000ED8  2229               	addwfc	((c:___ftmul@f3_as_product+2)),c
  8782                           
  8783  000EDA  D000               	goto	l5185
  8784                           	
  8785  000EDC                     l934:
  8786                           	line	73
  8787                           	
  8788  000EDC                     l5185:
  8789  000EDC  90D8               	bcf	status,0
  8790  000EDE  321D               	rrcf	((c:___ftmul@f1+2)),c
  8791  000EE0  321C               	rrcf	((c:___ftmul@f1+1)),c
  8792  000EE2  321B               	rrcf	((c:___ftmul@f1)),c
  8793                           	line	74
  8794  000EE4  90D8               	bcf	status,0
  8795  000EE6  361E               	rlcf	((c:___ftmul@f2)),c
  8796  000EE8  361F               	rlcf	((c:___ftmul@f2+1)),c
  8797  000EEA  3620               	rlcf	((c:___ftmul@f2+2)),c
  8798                           	line	75
  8799                           	
  8800  000EEC                     l5187:
  8801  000EEC  2E2A               	decfsz	((c:___ftmul@cntr)),c
  8802                           	
  8803  000EEE  D7EB               	goto	l5181
  8804  000EF0  D000               	goto	l5189
  8805                           	
  8806  000EF2                     l935:
  8807                           	line	76
  8808                           	
  8809  000EF2                     l5189:
  8810  000EF2  6E21               	movwf	(??___ftmul+0+0)&0ffh,c
  8811  000EF4  0E09               	movlw	low(09h)
  8812  000EF6  6E2A               	movwf	((c:___ftmul@cntr)),c
  8813  000EF8  5021               	movf	(??___ftmul+0+0)&0ffh,c,w
  8814  000EFA  D000               	goto	l5191
  8815                           	line	77
  8816                           	
  8817  000EFC                     l936:
  8818                           	line	78
  8819                           	
  8820  000EFC                     l5191:
  8821                           	
  8822  000EFC  A01B               	btfss	((c:___ftmul@f1)),c,(0)&7
  8823  000EFE  D001               	goto	u4291
  8824  000F00  D001               	goto	u4290
  8825  000F02                     u4291:
  8826  000F02  D007               	goto	l5195
  8827  000F04                     u4290:
  8828                           	line	79
  8829                           	
  8830  000F04                     l5193:
  8831  000F04  501E               	movf	((c:___ftmul@f2)),c,w
  8832  000F06  2627               	addwf	((c:___ftmul@f3_as_product)),c
  8833  000F08  501F               	movf	((c:___ftmul@f2+1)),c,w
  8834  000F0A  2228               	addwfc	((c:___ftmul@f3_as_product+1)),c
  8835  000F0C  5020               	movf	((c:___ftmul@f2+2)),c,w
  8836  000F0E  2229               	addwfc	((c:___ftmul@f3_as_product+2)),c
  8837                           
  8838  000F10  D000               	goto	l5195
  8839                           	
  8840  000F12                     l937:
  8841                           	line	80
  8842                           	
  8843  000F12                     l5195:
  8844  000F12  90D8               	bcf	status,0
  8845  000F14  321D               	rrcf	((c:___ftmul@f1+2)),c
  8846  000F16  321C               	rrcf	((c:___ftmul@f1+1)),c
  8847  000F18  321B               	rrcf	((c:___ftmul@f1)),c
  8848                           	line	81
  8849  000F1A  90D8               	bcf	status,0
  8850  000F1C  3229               	rrcf	((c:___ftmul@f3_as_product+2)),c
  8851  000F1E  3228               	rrcf	((c:___ftmul@f3_as_product+1)),c
  8852  000F20  3227               	rrcf	((c:___ftmul@f3_as_product)),c
  8853                           	line	82
  8854                           	
  8855  000F22                     l5197:
  8856  000F22  2E2A               	decfsz	((c:___ftmul@cntr)),c
  8857                           	
  8858  000F24  D7EB               	goto	l5191
  8859  000F26  D000               	goto	l5199
  8860                           	
  8861  000F28                     l938:
  8862                           	line	83
  8863                           	
  8864  000F28                     l5199:
  8865  000F28  C027  F013         	movff	(c:___ftmul@f3_as_product),(c:?___ftpack)
  8866  000F2C  C028  F014         	movff	(c:___ftmul@f3_as_product+1),(c:?___ftpack+1)
  8867  000F30  C029  F015         	movff	(c:___ftmul@f3_as_product+2),(c:?___ftpack+2)
  8868  000F34  C026  F016         	movff	(c:___ftmul@exp),0+((c:?___ftpack)+03h)
  8869  000F38  C02B  F017         	movff	(c:___ftmul@sign),0+((c:?___ftpack)+04h)
  8870  000F3C  EC40  F008         	call	___ftpack	;wreg free
  8871  000F40  C013  F01B         	movff	0+?___ftpack,(c:?___ftmul)
  8872  000F44  C014  F01C         	movff	1+?___ftpack,(c:?___ftmul+1)
  8873  000F48  C015  F01D         	movff	2+?___ftpack,(c:?___ftmul+2)
  8874  000F4C  D000               	goto	l931
  8875                           	
  8876  000F4E                     l5201:
  8877                           	line	84
  8878                           	
  8879  000F4E                     l931:
  8880  000F4E  0012               	return
  8881                           	opt stack 0
  8882                           GLOBAL	__end_of___ftmul
  8883  000F50                     	__end_of___ftmul:
  8884                           	signat	___ftmul,8315
  8885                           	global	___ftpack
  8886                           
  8887 ;; *************** function ___ftpack *****************
  8888 ;; Defined at:
  8889 ;;		line 63 in file "C:\Program Files\HI-TECH Software\PICC-18\9.80\sources\float.c"
  8890 ;; Parameters:    Size  Location     Type
  8891 ;;  arg             3   18[COMRAM] unsigned um
  8892 ;;  exp             1   21[COMRAM] unsigned char 
  8893 ;;  sign            1   22[COMRAM] unsigned char 
  8894 ;; Auto vars:     Size  Location     Type
  8895 ;;		None
  8896 ;; Return value:  Size  Location     Type
  8897 ;;                  3   18[COMRAM] float 
  8898 ;; Registers used:
  8899 ;;		wreg, status,2, status,0
  8900 ;; Tracked objects:
  8901 ;;		On entry : 0/0
  8902 ;;		On exit  : 0/0
  8903 ;;		Unchanged: 0/0
  8904 ;; Data sizes:     COMRAM   BANK0   BANK1   BANK2   BANK3   BANK4   BANK5   BANK6   BANK7   BANK8   BANK9  BANK10  BANK1
       1  BANK12  BANK13  BANK14
  8905 ;;      Params:         5       0       0       0       0       0       0       0       0       0       0       0       
       0       0       0       0
  8906 ;;      Locals:         0       0       0       0       0       0       0       0       0       0       0       0       
       0       0       0       0
  8907 ;;      Temps:          3       0       0       0       0       0       0       0       0       0       0       0       
       0       0       0       0
  8908 ;;      Totals:         8       0       0       0       0       0       0       0       0       0       0       0       
       0       0       0       0
  8909 ;;Total ram usage:        8 bytes
  8910 ;; Hardware stack levels used:    1
  8911 ;; Hardware stack levels required when called:    4
  8912 ;; This function calls:
  8913 ;;		Nothing
  8914 ;; This function is called by:
  8915 ;;		___ftmul
  8916 ;;		___abtoft
  8917 ;;		___altoft
  8918 ;;		___attoft
  8919 ;;		___awtoft
  8920 ;;		___ftadd
  8921 ;;		___ftdiv
  8922 ;;		___lbtoft
  8923 ;;		___lltoft
  8924 ;;		___lttoft
  8925 ;;		___lwtoft
  8926 ;; This function uses a non-reentrant model
  8927 ;;
  8928                           psect	text24,class=CODE,space=0,reloc=2
  8929                           global __ptext24
  8930  001080                     __ptext24:
  8931                           psect	text24
  8932                           	file	"C:\Program Files\HI-TECH Software\PICC-18\9.80\sources\float.c"
  8933                           	line	63
  8934                           	global	__size_of___ftpack
  8935  0000                     	__size_of___ftpack	equ	__end_of___ftpack-___ftpack
  8936                           	
  8937  001080                     ___ftpack:
  8938                           	opt	stack 22
  8939                           	line	64
  8940                           	
  8941  001080                     l4967:
  8942  001080  5016               	movf	((c:___ftpack@exp)),c,w
  8943  001082  B4D8               	btfsc	status,2
  8944  001084  D001               	goto	u3871
  8945  001086  D001               	goto	u3870
  8946  001088                     u3871:
  8947  001088  D008               	goto	l4971
  8948  00108A                     u3870:
  8949                           	
  8950  00108A                     l4969:
  8951  00108A  5013               	movf	((c:___ftpack@arg)),c,w
  8952  00108C  1014               	iorwf	((c:___ftpack@arg+1)),c,w
  8953  00108E  1015               	iorwf	((c:___ftpack@arg+2)),c,w
  8954  001090  A4D8               	btfss	status,2
  8955  001092  D001               	goto	u3881
  8956  001094  D001               	goto	u3880
  8957  001096                     u3881:
  8958  001096  D010               	goto	l4977
  8959  001098                     u3880:
  8960  001098  D000               	goto	l4971
  8961                           	
  8962  00109A                     l846:
  8963                           	line	65
  8964                           	
  8965  00109A                     l4971:
  8966  00109A  0E00               	movlw	low(float24(0.0000000000000000))
  8967  00109C  6E13               	movwf	((c:?___ftpack)),c
  8968  00109E  0E00               	movlw	high(float24(0.0000000000000000))
  8969  0010A0  6E14               	movwf	((c:?___ftpack+1)),c
  8970  0010A2  0E00               	movlw	low highword(float24(0.0000000000000000))
  8971  0010A4  6E15               	movwf	((c:?___ftpack+2)),c
  8972                           
  8973  0010A6  D062               	goto	l847
  8974                           	
  8975  0010A8                     l4973:
  8976  0010A8  D061               	goto	l847
  8977                           	
  8978  0010AA                     l844:
  8979                           	line	66
  8980  0010AA  D006               	goto	l4977
  8981                           	
  8982  0010AC                     l849:
  8983                           	line	67
  8984                           	
  8985  0010AC                     l4975:
  8986  0010AC  2A16               	incf	((c:___ftpack@exp)),c
  8987                           	line	68
  8988  0010AE  90D8               	bcf	status,0
  8989  0010B0  3215               	rrcf	((c:___ftpack@arg+2)),c
  8990  0010B2  3214               	rrcf	((c:___ftpack@arg+1)),c
  8991  0010B4  3213               	rrcf	((c:___ftpack@arg)),c
  8992  0010B6  D000               	goto	l4977
  8993                           	line	69
  8994                           	
  8995  0010B8                     l848:
  8996                           	line	66
  8997                           	
  8998  0010B8                     l4977:
  8999  0010B8  0E00               	movlw	low(0FE0000h)
  9000  0010BA  1413               	andwf	((c:___ftpack@arg)),c,w
  9001  0010BC  6E18               	movwf	(??___ftpack+0+0)&0ffh,c
  9002  0010BE  0E00               	movlw	0
  9003  0010C0  1414               	andwf	((c:___ftpack@arg+1)),c,w
  9004  0010C2  6E19               	movwf	1+(??___ftpack+0+0)&0ffh,c
  9005  0010C4  0EFE               	movlw	0FEh
  9006  0010C6  1415               	andwf	((c:___ftpack@arg+2)),c,w
  9007  0010C8  6E1A               	movwf	2+(??___ftpack+0+0)&0ffh,c
  9008                           
  9009  0010CA  5018               	movf	(??___ftpack+0+0),c,w
  9010  0010CC  1019               	iorwf	(??___ftpack+0+1),c,w
  9011  0010CE  101A               	iorwf	(??___ftpack+0+2),c,w
  9012  0010D0  A4D8               	btfss	status,2
  9013  0010D2  D001               	goto	u3891
  9014  0010D4  D001               	goto	u3890
  9015  0010D6                     u3891:
  9016  0010D6  D7EA               	goto	l4975
  9017  0010D8                     u3890:
  9018  0010D8  D00D               	goto	l4983
  9019                           	
  9020  0010DA                     l850:
  9021                           	line	70
  9022  0010DA  D00C               	goto	l4983
  9023                           	
  9024  0010DC                     l852:
  9025                           	line	71
  9026                           	
  9027  0010DC                     l4979:
  9028  0010DC  2A16               	incf	((c:___ftpack@exp)),c
  9029                           	line	72
  9030                           	
  9031  0010DE                     l4981:
  9032  0010DE  0E01               	movlw	low(01h)
  9033  0010E0  2613               	addwf	((c:___ftpack@arg)),c
  9034  0010E2  0E00               	movlw	high(01h)
  9035  0010E4  2214               	addwfc	((c:___ftpack@arg+1)),c
  9036  0010E6  0E00               	movlw	low highword(01h)
  9037  0010E8  2215               	addwfc	((c:___ftpack@arg+2)),c
  9038                           
  9039                           	line	73
  9040  0010EA  90D8               	bcf	status,0
  9041  0010EC  3215               	rrcf	((c:___ftpack@arg+2)),c
  9042  0010EE  3214               	rrcf	((c:___ftpack@arg+1)),c
  9043  0010F0  3213               	rrcf	((c:___ftpack@arg)),c
  9044  0010F2  D000               	goto	l4983
  9045                           	line	74
  9046                           	
  9047  0010F4                     l851:
  9048                           	line	70
  9049                           	
  9050  0010F4                     l4983:
  9051  0010F4  0E00               	movlw	low(0FF0000h)
  9052  0010F6  1413               	andwf	((c:___ftpack@arg)),c,w
  9053  0010F8  6E18               	movwf	(??___ftpack+0+0)&0ffh,c
  9054  0010FA  0E00               	movlw	0
  9055  0010FC  1414               	andwf	((c:___ftpack@arg+1)),c,w
  9056  0010FE  6E19               	movwf	1+(??___ftpack+0+0)&0ffh,c
  9057  001100  0EFF               	movlw	0FFh
  9058  001102  1415               	andwf	((c:___ftpack@arg+2)),c,w
  9059  001104  6E1A               	movwf	2+(??___ftpack+0+0)&0ffh,c
  9060                           
  9061  001106  5018               	movf	(??___ftpack+0+0),c,w
  9062  001108  1019               	iorwf	(??___ftpack+0+1),c,w
  9063  00110A  101A               	iorwf	(??___ftpack+0+2),c,w
  9064  00110C  A4D8               	btfss	status,2
  9065  00110E  D001               	goto	u3901
  9066  001110  D001               	goto	u3900
  9067  001112                     u3901:
  9068  001112  D7E4               	goto	l4979
  9069  001114                     u3900:
  9070  001114  D007               	goto	l4987
  9071                           	
  9072  001116                     l853:
  9073                           	line	75
  9074  001116  D006               	goto	l4987
  9075                           	
  9076  001118                     l855:
  9077                           	line	76
  9078                           	
  9079  001118                     l4985:
  9080  001118  0616               	decf	((c:___ftpack@exp)),c
  9081                           	line	77
  9082  00111A  90D8               	bcf	status,0
  9083  00111C  3613               	rlcf	((c:___ftpack@arg)),c
  9084  00111E  3614               	rlcf	((c:___ftpack@arg+1)),c
  9085  001120  3615               	rlcf	((c:___ftpack@arg+2)),c
  9086  001122  D000               	goto	l4987
  9087                           	line	78
  9088                           	
  9089  001124                     l854:
  9090                           	line	75
  9091                           	
  9092  001124                     l4987:
  9093                           	
  9094  001124  AE14               	btfss	((c:___ftpack@arg+1)),c,(15)&7
  9095  001126  D001               	goto	u3911
  9096  001128  D001               	goto	u3910
  9097  00112A                     u3911:
  9098  00112A  D7F6               	goto	l4985
  9099  00112C                     u3910:
  9100                           	
  9101  00112C                     l856:
  9102                           	line	79
  9103                           	
  9104  00112C  B016               	btfsc	((c:___ftpack@exp)),c,(0)&7
  9105  00112E  D001               	goto	u3921
  9106  001130  D001               	goto	u3920
  9107  001132                     u3921:
  9108  001132  D002               	goto	l4991
  9109  001134                     u3920:
  9110                           	line	80
  9111                           	
  9112  001134                     l4989:
  9113  001134  9E14               	bcf	(0+(15/8)+(c:___ftpack@arg)),c,(15)&7
  9114  001136  D000               	goto	l4991
  9115                           	
  9116  001138                     l857:
  9117                           	line	81
  9118                           	
  9119  001138                     l4991:
  9120  001138  90D8               	bcf status,0
  9121  00113A  3216               	rrcf	((c:___ftpack@exp)),c
  9122                           
  9123                           	line	82
  9124  00113C  5016               	movf	((c:___ftpack@exp)),c,w
  9125  00113E  6E1A               	movwf	(??___ftpack+0+0+2)&0ffh,c
  9126  001140  6A19               	clrf	(??___ftpack+0+0+1)&0ffh,c
  9127  001142  6A18               	clrf	(??___ftpack+0+0)&0ffh,c
  9128  001144  5018               	movf	(??___ftpack+0+0),c,w
  9129  001146  1213               	iorwf	((c:___ftpack@arg)),c
  9130  001148  5019               	movf	(??___ftpack+0+1),c,w
  9131  00114A  1214               	iorwf	((c:___ftpack@arg+1)),c
  9132  00114C  501A               	movf	(??___ftpack+0+2),c,w
  9133  00114E  1215               	iorwf	((c:___ftpack@arg+2)),c
  9134                           
  9135                           	line	83
  9136                           	
  9137  001150                     l4993:
  9138  001150  5017               	movf	((c:___ftpack@sign)),c,w
  9139  001152  B4D8               	btfsc	status,2
  9140  001154  D001               	goto	u3931
  9141  001156  D001               	goto	u3930
  9142  001158                     u3931:
  9143  001158  D002               	goto	l4997
  9144  00115A                     u3930:
  9145                           	line	84
  9146                           	
  9147  00115A                     l4995:
  9148  00115A  8E15               	bsf	(0+(23/8)+(c:___ftpack@arg)),c,(23)&7
  9149  00115C  D000               	goto	l4997
  9150                           	
  9151  00115E                     l858:
  9152                           	line	85
  9153                           	
  9154  00115E                     l4997:
  9155  00115E  C013  F013         	movff	(c:___ftpack@arg),(c:?___ftpack)
  9156  001162  C014  F014         	movff	(c:___ftpack@arg+1),(c:?___ftpack+1)
  9157  001166  C015  F015         	movff	(c:___ftpack@arg+2),(c:?___ftpack+2)
  9158  00116A  D000               	goto	l847
  9159                           	
  9160  00116C                     l4999:
  9161                           	line	86
  9162                           	
  9163  00116C                     l847:
  9164  00116C  0012               	return
  9165                           	opt stack 0
  9166                           GLOBAL	__end_of___ftpack
  9167  00116E                     	__end_of___ftpack:
  9168                           	signat	___ftpack,12411
  9169                           	global	___fttol
  9170                           
  9171 ;; *************** function ___fttol *****************
  9172 ;; Defined at:
  9173 ;;		line 45 in file "C:\Program Files\HI-TECH Software\PICC-18\9.80\sources\fttol.c"
  9174 ;; Parameters:    Size  Location     Type
  9175 ;;  f1              3   43[COMRAM] float 
  9176 ;; Auto vars:     Size  Location     Type
  9177 ;;  lval            4   53[COMRAM] unsigned long 
  9178 ;;  exp1            1   57[COMRAM] unsigned char 
  9179 ;;  sign1           1   52[COMRAM] unsigned char 
  9180 ;; Return value:  Size  Location     Type
  9181 ;;                  4   43[COMRAM] long 
  9182 ;; Registers used:
  9183 ;;		wreg, status,2, status,0
  9184 ;; Tracked objects:
  9185 ;;		On entry : 0/0
  9186 ;;		On exit  : 0/0
  9187 ;;		Unchanged: 0/0
  9188 ;; Data sizes:     COMRAM   BANK0   BANK1   BANK2   BANK3   BANK4   BANK5   BANK6   BANK7   BANK8   BANK9  BANK10  BANK1
       1  BANK12  BANK13  BANK14
  9189 ;;      Params:         4       0       0       0       0       0       0       0       0       0       0       0       
       0       0       0       0
  9190 ;;      Locals:         6       0       0       0       0       0       0       0       0       0       0       0       
       0       0       0       0
  9191 ;;      Temps:          5       0       0       0       0       0       0       0       0       0       0       0       
       0       0       0       0
  9192 ;;      Totals:        15       0       0       0       0       0       0       0       0       0       0       0       
       0       0       0       0
  9193 ;;Total ram usage:       15 bytes
  9194 ;; Hardware stack levels used:    1
  9195 ;; Hardware stack levels required when called:    4
  9196 ;; This function calls:
  9197 ;;		Nothing
  9198 ;; This function is called by:
  9199 ;;		_CalculateTime25msCounter
  9200 ;; This function uses a non-reentrant model
  9201 ;;
  9202                           psect	text25,class=CODE,space=0,reloc=2
  9203                           global __ptext25
  9204  000F50                     __ptext25:
  9205                           psect	text25
  9206                           	file	"C:\Program Files\HI-TECH Software\PICC-18\9.80\sources\fttol.c"
  9207                           	line	45
  9208                           	global	__size_of___fttol
  9209  0000                     	__size_of___fttol	equ	__end_of___fttol-___fttol
  9210                           	
  9211  000F50                     ___fttol:
  9212                           	opt	stack 23
  9213                           	line	49
  9214                           	
  9215  000F50                     l5209:
  9216  000F50  0E0F               	movlw	(0Fh)&0ffh
  9217  000F52  6E30               	movwf	(??___fttol+0+0)&0ffh,c
  9218  000F54  C02C  F031         	movff	(c:___fttol@f1),??___fttol+1+0
  9219  000F58  C02D  F032         	movff	(c:___fttol@f1+1),??___fttol+1+0+1
  9220  000F5C  C02E  F033         	movff	(c:___fttol@f1+2),??___fttol+1+0+2
  9221  000F60  2830               	incf	((??___fttol+0+0)),c,w
  9222  000F62  6E34               	movwf	(??___fttol+4+0)&0ffh,c
  9223  000F64  D004               	goto	u4300
  9224  000F66                     u4305:
  9225  000F66  90D8               	bcf	status,0
  9226  000F68  3233               	rrcf	(??___fttol+1+2),c
  9227  000F6A  3232               	rrcf	(??___fttol+1+1),c
  9228  000F6C  3231               	rrcf	(??___fttol+1+0),c
  9229  000F6E                     u4300:
  9230  000F6E  2E34               	decfsz	(??___fttol+4+0)&0ffh,c
  9231  000F70  D7FA               	goto	u4305
  9232  000F72  5031               	movf	(??___fttol+1+0),c,w
  9233  000F74  6E3A               	movwf	((c:___fttol@exp1)),c
  9234  000F76  663A               	tstfsz	((c:___fttol@exp1))&0ffh
  9235  000F78  D001               	goto	u4311
  9236  000F7A  D001               	goto	u4310
  9237  000F7C                     u4311:
  9238  000F7C  D00A               	goto	l5215
  9239  000F7E                     u4310:
  9240                           	line	50
  9241                           	
  9242  000F7E                     l5211:
  9243  000F7E  0E00               	movlw	low(0)
  9244  000F80  6E2C               	movwf	((c:?___fttol)),c
  9245  000F82  0E00               	movlw	high(0)
  9246  000F84  6E2D               	movwf	((c:?___fttol+1)),c
  9247  000F86  0E00               	movlw	low highword(0)
  9248  000F88  6E2E               	movwf	((c:?___fttol+2)),c
  9249  000F8A  0E00               	movlw	high highword(0)
  9250  000F8C  6E2F               	movwf	((c:?___fttol+3)),c
  9251  000F8E  D077               	goto	l951
  9252                           	
  9253  000F90                     l5213:
  9254  000F90  D076               	goto	l951
  9255                           	
  9256  000F92                     l950:
  9257                           	line	51
  9258                           	
  9259  000F92                     l5215:
  9260  000F92  0E17               	movlw	(017h)&0ffh
  9261  000F94  6E30               	movwf	(??___fttol+0+0)&0ffh,c
  9262  000F96  C02C  F031         	movff	(c:___fttol@f1),??___fttol+1+0
  9263  000F9A  C02D  F032         	movff	(c:___fttol@f1+1),??___fttol+1+0+1
  9264  000F9E  C02E  F033         	movff	(c:___fttol@f1+2),??___fttol+1+0+2
  9265  000FA2  2830               	incf	((??___fttol+0+0)),c,w
  9266  000FA4  6E34               	movwf	(??___fttol+4+0)&0ffh,c
  9267  000FA6  D004               	goto	u4320
  9268  000FA8                     u4325:
  9269  000FA8  90D8               	bcf	status,0
  9270  000FAA  3233               	rrcf	(??___fttol+1+2),c
  9271  000FAC  3232               	rrcf	(??___fttol+1+1),c
  9272  000FAE  3231               	rrcf	(??___fttol+1+0),c
  9273  000FB0                     u4320:
  9274  000FB0  2E34               	decfsz	(??___fttol+4+0)&0ffh,c
  9275  000FB2  D7FA               	goto	u4325
  9276  000FB4  5031               	movf	(??___fttol+1+0),c,w
  9277  000FB6  6E35               	movwf	((c:___fttol@sign1)),c
  9278                           	line	52
  9279                           	
  9280  000FB8                     l5217:
  9281  000FB8  8E2D               	bsf	(0+(15/8)+(c:___fttol@f1)),c,(15)&7
  9282                           	line	53
  9283                           	
  9284  000FBA                     l5219:
  9285  000FBA  0EFF               	movlw	low(0FFFFh)
  9286  000FBC  162C               	andwf	((c:___fttol@f1)),c
  9287  000FBE  0EFF               	movlw	high(0FFFFh)
  9288  000FC0  162D               	andwf	((c:___fttol@f1+1)),c
  9289  000FC2  0E00               	movlw	low highword(0FFFFh)
  9290  000FC4  162E               	andwf	((c:___fttol@f1+2)),c
  9291                           
  9292                           	line	54
  9293                           	
  9294  000FC6                     l5221:
  9295  000FC6  502C               	movf	((c:___fttol@f1)),c,w
  9296  000FC8  6E36               	movwf	((c:___fttol@lval)),c
  9297  000FCA  502D               	movf	((c:___fttol@f1+1)),c,w
  9298  000FCC  6E37               	movwf	1+((c:___fttol@lval)),c
  9299                           	
  9300  000FCE  502E               	movf	((c:___fttol@f1+2)),c,w
  9301  000FD0  6E38               	movwf	2+((c:___fttol@lval)),c
  9302                           	
  9303  000FD2  6A39               	clrf	3+((c:___fttol@lval)),c
  9304                           	line	55
  9305                           	
  9306  000FD4                     l5223:
  9307  000FD4  0E8E               	movlw	(08Eh)&0ffh
  9308  000FD6  5E3A               	subwf	((c:___fttol@exp1)),c
  9309                           	line	56
  9310                           	
  9311  000FD8                     l5225:
  9312  000FD8  AE3A               	btfss	((c:___fttol@exp1)),c,7
  9313  000FDA  D001               	goto	u4331
  9314  000FDC  D001               	goto	u4330
  9315  000FDE                     u4331:
  9316  000FDE  D01B               	goto	l5237
  9317  000FE0                     u4330:
  9318                           	line	57
  9319                           	
  9320  000FE0                     l5227:
  9321  000FE0  503A               	movf	((c:___fttol@exp1)),c,w
  9322  000FE2  0A80               	xorlw	80h
  9323  000FE4  0F8F               	addlw	-((-15)^80h)
  9324  000FE6  B0D8               	btfsc	status,0
  9325  000FE8  D001               	goto	u4341
  9326  000FEA  D001               	goto	u4340
  9327  000FEC                     u4341:
  9328  000FEC  D00B               	goto	l5233
  9329  000FEE                     u4340:
  9330                           	line	58
  9331                           	
  9332  000FEE                     l5229:
  9333  000FEE  0E00               	movlw	low(0)
  9334  000FF0  6E2C               	movwf	((c:?___fttol)),c
  9335  000FF2  0E00               	movlw	high(0)
  9336  000FF4  6E2D               	movwf	((c:?___fttol+1)),c
  9337  000FF6  0E00               	movlw	low highword(0)
  9338  000FF8  6E2E               	movwf	((c:?___fttol+2)),c
  9339  000FFA  0E00               	movlw	high highword(0)
  9340  000FFC  6E2F               	movwf	((c:?___fttol+3)),c
  9341  000FFE  D03F               	goto	l951
  9342                           	
  9343  001000                     l5231:
  9344  001000  D03E               	goto	l951
  9345                           	
  9346  001002                     l953:
  9347  001002  D000               	goto	l5233
  9348                           	line	59
  9349                           	
  9350  001004                     l954:
  9351                           	line	60
  9352                           	
  9353  001004                     l5233:
  9354  001004  90D8               	bcf	status,0
  9355  001006  3239               	rrcf	((c:___fttol@lval+3)),c
  9356  001008  3238               	rrcf	((c:___fttol@lval+2)),c
  9357  00100A  3237               	rrcf	((c:___fttol@lval+1)),c
  9358  00100C  3236               	rrcf	((c:___fttol@lval)),c
  9359                           	line	61
  9360                           	
  9361  00100E                     l5235:
  9362  00100E  3E3A               	incfsz	((c:___fttol@exp1)),c
  9363                           	
  9364  001010  D7F9               	goto	l5233
  9365  001012  D01E               	goto	l5247
  9366                           	
  9367  001014                     l955:
  9368                           	line	62
  9369  001014  D01D               	goto	l5247
  9370                           	
  9371  001016                     l952:
  9372                           	line	63
  9373                           	
  9374  001016                     l5237:
  9375  001016  0E17               	movlw	(018h-1)
  9376  001018  643A               	cpfsgt	((c:___fttol@exp1)),c
  9377  00101A  D001               	goto	u4351
  9378  00101C  D001               	goto	u4350
  9379  00101E                     u4351:
  9380  00101E  D012               	goto	l5245
  9381  001020                     u4350:
  9382                           	line	64
  9383                           	
  9384  001020                     l5239:
  9385  001020  0E00               	movlw	low(0)
  9386  001022  6E2C               	movwf	((c:?___fttol)),c
  9387  001024  0E00               	movlw	high(0)
  9388  001026  6E2D               	movwf	((c:?___fttol+1)),c
  9389  001028  0E00               	movlw	low highword(0)
  9390  00102A  6E2E               	movwf	((c:?___fttol+2)),c
  9391  00102C  0E00               	movlw	high highword(0)
  9392  00102E  6E2F               	movwf	((c:?___fttol+3)),c
  9393  001030  D026               	goto	l951
  9394                           	
  9395  001032                     l5241:
  9396  001032  D025               	goto	l951
  9397                           	
  9398  001034                     l957:
  9399                           	line	65
  9400  001034  D007               	goto	l5245
  9401                           	
  9402  001036                     l959:
  9403                           	line	66
  9404                           	
  9405  001036                     l5243:
  9406  001036  90D8               	bcf	status,0
  9407  001038  3636               	rlcf	((c:___fttol@lval)),c
  9408  00103A  3637               	rlcf	((c:___fttol@lval+1)),c
  9409  00103C  3638               	rlcf	((c:___fttol@lval+2)),c
  9410  00103E  3639               	rlcf	((c:___fttol@lval+3)),c
  9411                           	line	67
  9412  001040  063A               	decf	((c:___fttol@exp1)),c
  9413  001042  D000               	goto	l5245
  9414                           	line	68
  9415                           	
  9416  001044                     l958:
  9417                           	line	65
  9418                           	
  9419  001044                     l5245:
  9420  001044  663A               	tstfsz	((c:___fttol@exp1)),c
  9421  001046  D001               	goto	u4361
  9422  001048  D001               	goto	u4360
  9423  00104A                     u4361:
  9424  00104A  D7F5               	goto	l5243
  9425  00104C                     u4360:
  9426  00104C  D001               	goto	l5247
  9427                           	
  9428  00104E                     l960:
  9429  00104E  D000               	goto	l5247
  9430                           	line	69
  9431                           	
  9432  001050                     l956:
  9433                           	line	70
  9434                           	
  9435  001050                     l5247:
  9436  001050  5035               	movf	((c:___fttol@sign1)),c,w
  9437  001052  B4D8               	btfsc	status,2
  9438  001054  D001               	goto	u4371
  9439  001056  D001               	goto	u4370
  9440  001058                     u4371:
  9441  001058  D009               	goto	l5251
  9442  00105A                     u4370:
  9443                           	line	71
  9444                           	
  9445  00105A                     l5249:
  9446  00105A  1E39               	comf	((c:___fttol@lval+3)),c
  9447  00105C  1E38               	comf	((c:___fttol@lval+2)),c
  9448  00105E  1E37               	comf	((c:___fttol@lval+1)),c
  9449  001060  6C36               	negf	((c:___fttol@lval)),c
  9450  001062  0E00               	movlw	0
  9451  001064  2237               	addwfc	((c:___fttol@lval+1)),c
  9452  001066  2238               	addwfc	((c:___fttol@lval+2)),c
  9453  001068  2239               	addwfc	((c:___fttol@lval+3)),c
  9454  00106A  D000               	goto	l5251
  9455                           	
  9456  00106C                     l961:
  9457                           	line	72
  9458                           	
  9459  00106C                     l5251:
  9460  00106C  C036  F02C         	movff	(c:___fttol@lval),(c:?___fttol)
  9461  001070  C037  F02D         	movff	(c:___fttol@lval+1),(c:?___fttol+1)
  9462  001074  C038  F02E         	movff	(c:___fttol@lval+2),(c:?___fttol+2)
  9463  001078  C039  F02F         	movff	(c:___fttol@lval+3),(c:?___fttol+3)
  9464  00107C  D000               	goto	l951
  9465                           	
  9466  00107E                     l5253:
  9467                           	line	73
  9468                           	
  9469  00107E                     l951:
  9470  00107E  0012               	return
  9471                           	opt stack 0
  9472                           GLOBAL	__end_of___fttol
  9473  001080                     	__end_of___fttol:
  9474                           	signat	___fttol,4220
  9475                           	global	___lwdiv
  9476                           
  9477 ;; *************** function ___lwdiv *****************
  9478 ;; Defined at:
  9479 ;;		line 10 in file "C:\Program Files\HI-TECH Software\PICC-18\9.80\sources\lwdiv.c"
  9480 ;; Parameters:    Size  Location     Type
  9481 ;;  dividend        2   18[COMRAM] unsigned int 
  9482 ;;  divisor         2   20[COMRAM] unsigned int 
  9483 ;; Auto vars:     Size  Location     Type
  9484 ;;  quotient        2   24[COMRAM] unsigned int 
  9485 ;;  counter         1   23[COMRAM] unsigned char 
  9486 ;; Return value:  Size  Location     Type
  9487 ;;                  2   18[COMRAM] unsigned int 
  9488 ;; Registers used:
  9489 ;;		wreg, status,2, status,0
  9490 ;; Tracked objects:
  9491 ;;		On entry : F/0
  9492 ;;		On exit  : 0/0
  9493 ;;		Unchanged: 0/0
  9494 ;; Data sizes:     COMRAM   BANK0   BANK1   BANK2   BANK3   BANK4   BANK5   BANK6   BANK7   BANK8   BANK9  BANK10  BANK1
       1  BANK12  BANK13  BANK14
  9495 ;;      Params:         4       0       0       0       0       0       0       0       0       0       0       0       
       0       0       0       0
  9496 ;;      Locals:         3       0       0       0       0       0       0       0       0       0       0       0       
       0       0       0       0
  9497 ;;      Temps:          1       0       0       0       0       0       0       0       0       0       0       0       
       0       0       0       0
  9498 ;;      Totals:         8       0       0       0       0       0       0       0       0       0       0       0       
       0       0       0       0
  9499 ;;Total ram usage:        8 bytes
  9500 ;; Hardware stack levels used:    1
  9501 ;; Hardware stack levels required when called:    4
  9502 ;; This function calls:
  9503 ;;		Nothing
  9504 ;; This function is called by:
  9505 ;;		_CalculateTime25msCounter
  9506 ;; This function uses a non-reentrant model
  9507 ;;
  9508                           psect	text26,class=CODE,space=0,reloc=2
  9509                           global __ptext26
  9510  00181E                     __ptext26:
  9511                           psect	text26
  9512                           	file	"C:\Program Files\HI-TECH Software\PICC-18\9.80\sources\lwdiv.c"
  9513                           	line	10
  9514                           	global	__size_of___lwdiv
  9515  0000                     	__size_of___lwdiv	equ	__end_of___lwdiv-___lwdiv
  9516                           	
  9517  00181E                     ___lwdiv:
  9518                           	opt	stack 23
  9519                           	line	14
  9520                           	
  9521  00181E                     l5273:; BSR set to: 0
  9522                           
  9523  00181E  0E00               	movlw	high(0)
  9524  001820  6E1A               	movwf	((c:___lwdiv@quotient+1)),c
  9525  001822  0E00               	movlw	low(0)
  9526  001824  6E19               	movwf	((c:___lwdiv@quotient)),c
  9527                           	line	15
  9528                           	
  9529  001826                     l5275:
  9530  001826  5016               	movf	((c:___lwdiv@divisor+1)),c,w
  9531  001828  1015               	iorwf ((c:___lwdiv@divisor)),c,w
  9532                           
  9533  00182A  B4D8               	btfsc	status,2
  9534  00182C  D001               	goto	u4391
  9535  00182E  D001               	goto	u4390
  9536  001830                     u4391:
  9537  001830  D027               	goto	l1059
  9538  001832                     u4390:
  9539                           	line	16
  9540                           	
  9541  001832                     l5277:
  9542  001832  6E17               	movwf	(??___lwdiv+0+0)&0ffh,c
  9543  001834  0E01               	movlw	low(01h)
  9544  001836  6E18               	movwf	((c:___lwdiv@counter)),c
  9545  001838  5017               	movf	(??___lwdiv+0+0)&0ffh,c,w
  9546                           	line	17
  9547  00183A  D005               	goto	l5281
  9548                           	
  9549  00183C                     l1061:
  9550                           	line	18
  9551                           	
  9552  00183C                     l5279:
  9553  00183C  90D8               	bcf	status,0
  9554  00183E  3615               	rlcf	((c:___lwdiv@divisor)),c
  9555  001840  3616               	rlcf	((c:___lwdiv@divisor+1)),c
  9556                           	line	19
  9557  001842  2A18               	incf	((c:___lwdiv@counter)),c
  9558  001844  D000               	goto	l5281
  9559                           	line	20
  9560                           	
  9561  001846                     l1060:
  9562                           	line	17
  9563                           	
  9564  001846                     l5281:
  9565                           	
  9566  001846  AE16               	btfss	((c:___lwdiv@divisor+1)),c,(15)&7
  9567  001848  D001               	goto	u4401
  9568  00184A  D001               	goto	u4400
  9569  00184C                     u4401:
  9570  00184C  D7F7               	goto	l5279
  9571  00184E                     u4400:
  9572  00184E  D001               	goto	l5283
  9573                           	
  9574  001850                     l1062:
  9575  001850  D000               	goto	l5283
  9576                           	line	21
  9577                           	
  9578  001852                     l1063:
  9579                           	line	22
  9580                           	
  9581  001852                     l5283:
  9582  001852  90D8               	bcf	status,0
  9583  001854  3619               	rlcf	((c:___lwdiv@quotient)),c
  9584  001856  361A               	rlcf	((c:___lwdiv@quotient+1)),c
  9585                           	line	23
  9586                           	
  9587  001858                     l5285:
  9588  001858  5015               	movf	((c:___lwdiv@divisor)),c,w
  9589  00185A  5C13               	subwf	((c:___lwdiv@dividend)),c,w
  9590  00185C  5016               	movf	((c:___lwdiv@divisor+1)),c,w
  9591  00185E  5814               	subwfb	((c:___lwdiv@dividend+1)),c,w
  9592  001860  A0D8               	btfss	status,0
  9593  001862  D001               	goto	u4411
  9594  001864  D001               	goto	u4410
  9595  001866                     u4411:
  9596  001866  D006               	goto	l5291
  9597  001868                     u4410:
  9598                           	line	24
  9599                           	
  9600  001868                     l5287:
  9601  001868  5015               	movf	((c:___lwdiv@divisor)),c,w
  9602  00186A  5E13               	subwf	((c:___lwdiv@dividend)),c
  9603  00186C  5016               	movf	((c:___lwdiv@divisor+1)),c,w
  9604  00186E  5A14               	subwfb	((c:___lwdiv@dividend+1)),c
  9605                           
  9606                           	line	25
  9607                           	
  9608  001870                     l5289:
  9609  001870  8019               	bsf	(0+(0/8)+(c:___lwdiv@quotient)),c,(0)&7
  9610  001872  D000               	goto	l5291
  9611                           	line	26
  9612                           	
  9613  001874                     l1064:
  9614                           	line	27
  9615                           	
  9616  001874                     l5291:
  9617  001874  90D8               	bcf	status,0
  9618  001876  3216               	rrcf	((c:___lwdiv@divisor+1)),c
  9619  001878  3215               	rrcf	((c:___lwdiv@divisor)),c
  9620                           	line	28
  9621                           	
  9622  00187A                     l5293:
  9623  00187A  2E18               	decfsz	((c:___lwdiv@counter)),c
  9624                           	
  9625  00187C  D7EA               	goto	l5283
  9626  00187E  D000               	goto	l1059
  9627                           	
  9628  001880                     l1065:
  9629                           	line	29
  9630                           	
  9631  001880                     l1059:
  9632                           	line	30
  9633  001880  C019  F013         	movff	(c:___lwdiv@quotient),(c:?___lwdiv)
  9634  001884  C01A  F014         	movff	(c:___lwdiv@quotient+1),(c:?___lwdiv+1)
  9635                           	line	31
  9636                           	
  9637  001888                     l1066:
  9638  001888  0012               	return
  9639                           	opt stack 0
  9640                           GLOBAL	__end_of___lwdiv
  9641  00188A                     	__end_of___lwdiv:
  9642                           	signat	___lwdiv,8314
  9643                           	global	_IntServer
  9644                           
  9645 ;; *************** function _IntServer *****************
  9646 ;; Defined at:
  9647 ;;		line 287 in file "E:\WorkSpace\YellowFlashingController20140317\YellowFlash.C"
  9648 ;; Parameters:    Size  Location     Type
  9649 ;;		None
  9650 ;; Auto vars:     Size  Location     Type
  9651 ;;		None
  9652 ;; Return value:  Size  Location     Type
  9653 ;;		None               void
  9654 ;; Registers used:
  9655 ;;		wreg, status,2, status,0, cstack
  9656 ;; Tracked objects:
  9657 ;;		On entry : 0/0
  9658 ;;		On exit  : 0/0
  9659 ;;		Unchanged: 0/0
  9660 ;; Data sizes:     COMRAM   BANK0   BANK1   BANK2   BANK3   BANK4   BANK5   BANK6   BANK7   BANK8   BANK9  BANK10  BANK1
       1  BANK12  BANK13  BANK14
  9661 ;;      Params:         0       0       0       0       0       0       0       0       0       0       0       0       
       0       0       0       0
  9662 ;;      Locals:         0       0       0       0       0       0       0       0       0       0       0       0       
       0       0       0       0
  9663 ;;      Temps:         14       0       0       0       0       0       0       0       0       0       0       0       
       0       0       0       0
  9664 ;;      Totals:        14       0       0       0       0       0       0       0       0       0       0       0       
       0       0       0       0
  9665 ;;Total ram usage:       14 bytes
  9666 ;; Hardware stack levels used:    1
  9667 ;; Hardware stack levels required when called:    3
  9668 ;; This function calls:
  9669 ;;		_TMR0IntServer
  9670 ;;		_TMR1IntServer
  9671 ;;		_ADIntServer
  9672 ;; This function is called by:
  9673 ;;		Interrupt level 2
  9674 ;; This function uses a non-reentrant model
  9675 ;;
  9676                           psect	intcode,class=CODE,space=0,reloc=2
  9677                           global __pintcode
  9678  000008                     __pintcode:
  9679                           psect	intcode
  9680                           	file	"E:\WorkSpace\YellowFlashingController20140317\YellowFlash.C"
  9681                           	line	287
  9682                           	global	__size_of_IntServer
  9683  0000                     	__size_of_IntServer	equ	__end_of_IntServer-_IntServer
  9684                           	
  9685  000008                     _IntServer:
  9686                           	opt	stack 22
  9687  000008  CFFA F005          	movff	pclat+0,??_IntServer+0
  9688  00000C  CFFB F006          	movff	pclat+1,??_IntServer+1
  9689  000010  CFE9 F007          	movff	fsr0l+0,??_IntServer+2
  9690  000014  CFEA F008          	movff	fsr0h+0,??_IntServer+3
  9691  000018  CFE1 F009          	movff	fsr1l+0,??_IntServer+4
  9692  00001C  CFE2 F00A          	movff	fsr1h+0,??_IntServer+5
  9693  000020  CFD9 F00B          	movff	fsr2l+0,??_IntServer+6
  9694  000024  CFDA F00C          	movff	fsr2h+0,??_IntServer+7
  9695  000028  CFF3 F00D          	movff	prodl+0,??_IntServer+8
  9696  00002C  CFF4 F00E          	movff	prodh+0,??_IntServer+9
  9697  000030  CFF6 F00F          	movff	tblptrl+0,??_IntServer+10
  9698  000034  CFF7 F010          	movff	tblptrh+0,??_IntServer+11
  9699  000038  CFF8 F011          	movff	tblptru+0,??_IntServer+12
  9700  00003C  CFF5 F012          	movff	tablat+0,??_IntServer+13
  9701                           	line	290
  9702                           	
  9703  000040                     i2l4647:
  9704                           ;YellowFlash.C: 290: if(TMR0IE && TMR0IF)
  9705  000040  AAF2               	btfss	c:(32661/8),(32661)&7	;volatile
  9706  000042  D001               	goto	i2u357_41
  9707  000044  D001               	goto	i2u357_40
  9708  000046                     i2u357_41:
  9709  000046  D008               	goto	i2l4655
  9710  000048                     i2u357_40:
  9711                           	
  9712  000048                     i2l4649:
  9713  000048  A4F2               	btfss	c:(32658/8),(32658)&7	;volatile
  9714  00004A  D001               	goto	i2u358_41
  9715  00004C  D001               	goto	i2u358_40
  9716  00004E                     i2u358_41:
  9717  00004E  D004               	goto	i2l4655
  9718  000050                     i2u358_40:
  9719                           	line	293
  9720                           	
  9721  000050                     i2l4651:
  9722                           ;YellowFlash.C: 291: {
  9723                           ;YellowFlash.C: 293: TMR0IF = 0;
  9724  000050  94F2               	bcf	c:(32658/8),(32658)&7	;volatile
  9725                           	line	294
  9726                           	
  9727  000052                     i2l4653:
  9728                           ;YellowFlash.C: 294: TMR0IntServer();
  9729  000052  ECCB  F00D         	call	_TMR0IntServer	;wreg free
  9730  000056  D000               	goto	i2l4655
  9731                           	line	295
  9732                           	
  9733  000058                     i2l512:
  9734                           	line	297
  9735                           	
  9736  000058                     i2l4655:
  9737                           ;YellowFlash.C: 295: }
  9738                           ;YellowFlash.C: 297: if(TMR1IE && TMR1IF)
  9739  000058  A09D               	btfss	c:(31976/8),(31976)&7	;volatile
  9740  00005A  D001               	goto	i2u359_41
  9741  00005C  D001               	goto	i2u359_40
  9742  00005E                     i2u359_41:
  9743  00005E  D008               	goto	i2l4663
  9744  000060                     i2u359_40:
  9745                           	
  9746  000060                     i2l4657:
  9747  000060  A09E               	btfss	c:(31984/8),(31984)&7	;volatile
  9748  000062  D001               	goto	i2u360_41
  9749  000064  D001               	goto	i2u360_40
  9750  000066                     i2u360_41:
  9751  000066  D004               	goto	i2l4663
  9752  000068                     i2u360_40:
  9753                           	line	300
  9754                           	
  9755  000068                     i2l4659:
  9756                           ;YellowFlash.C: 298: {
  9757                           ;YellowFlash.C: 300: TMR1IF = 0;
  9758  000068  909E               	bcf	c:(31984/8),(31984)&7	;volatile
  9759                           	line	301
  9760                           	
  9761  00006A                     i2l4661:
  9762                           ;YellowFlash.C: 301: TMR1IntServer();
  9763  00006A  ECE7  F00C         	call	_TMR1IntServer	;wreg free
  9764  00006E  D000               	goto	i2l4663
  9765                           	line	302
  9766                           	
  9767  000070                     i2l513:
  9768                           	line	305
  9769                           	
  9770  000070                     i2l4663:
  9771                           ;YellowFlash.C: 302: }
  9772                           ;YellowFlash.C: 305: if((CANSTAT & 0x0e)!= 0x00)
  9773  000070  506E               	movf	((c:3950)),c,w	;volatile
  9774  000072  0B0E               	andlw	low(0Eh)
  9775  000074  B4D8               	btfsc	status,2
  9776  000076  D001               	goto	i2u361_41
  9777  000078  D001               	goto	i2u361_40
  9778  00007A                     i2u361_41:
  9779  00007A  D002               	goto	i2l514
  9780  00007C                     i2u361_40:
  9781                           	line	307
  9782                           	
  9783  00007C                     i2l4665:
  9784                           ;YellowFlash.C: 306: {
  9785                           ;YellowFlash.C: 307: CANInt=1;
  9786  00007C  0100               	movlb	(_CANInt/8) >> 8
  9787  00007E  804D               	bsf	(_CANInt/8),c,(_CANInt)&7
  9788                           	line	308
  9789                           	
  9790  000080                     i2l514:
  9791                           	line	309
  9792                           ;YellowFlash.C: 308: }
  9793                           ;YellowFlash.C: 309: if(ADIE && ADIF)
  9794  000080  AC9D               	btfss	c:(31982/8),(31982)&7	;volatile
  9795  000082  D001               	goto	i2u362_41
  9796  000084  D001               	goto	i2u362_40
  9797  000086                     i2u362_41:
  9798  000086  D008               	goto	i2l516
  9799  000088                     i2u362_40:
  9800                           	
  9801  000088                     i2l4667:
  9802  000088  AC9E               	btfss	c:(31990/8),(31990)&7	;volatile
  9803  00008A  D001               	goto	i2u363_41
  9804  00008C  D001               	goto	i2u363_40
  9805  00008E                     i2u363_41:
  9806  00008E  D004               	goto	i2l516
  9807  000090                     i2u363_40:
  9808                           	line	311
  9809                           	
  9810  000090                     i2l4669:
  9811                           ;YellowFlash.C: 310: {
  9812                           ;YellowFlash.C: 311: ADIF = 0;
  9813  000090  9C9E               	bcf	c:(31990/8),(31990)&7	;volatile
  9814                           	line	312
  9815                           	
  9816  000092                     i2l4671:
  9817                           ;YellowFlash.C: 312: ADIntServer();
  9818  000092  ECAC  F00D         	call	_ADIntServer	;wreg free
  9819  000096  D000               	goto	i2l516
  9820                           	line	314
  9821                           	
  9822  000098                     i2l515:
  9823                           	line	315
  9824                           	
  9825  000098                     i2l516:
  9826  000098  C012  FFF5         	movff	??_IntServer+13,tablat+0
  9827  00009C  C011  FFF8         	movff	??_IntServer+12,tblptru+0
  9828  0000A0  C010  FFF7         	movff	??_IntServer+11,tblptrh+0
  9829  0000A4  C00F  FFF6         	movff	??_IntServer+10,tblptrl+0
  9830  0000A8  C00E  FFF4         	movff	??_IntServer+9,prodh+0
  9831  0000AC  C00D  FFF3         	movff	??_IntServer+8,prodl+0
  9832  0000B0  C00C  FFDA         	movff	??_IntServer+7,fsr2h+0
  9833  0000B4  C00B  FFD9         	movff	??_IntServer+6,fsr2l+0
  9834  0000B8  C00A  FFE2         	movff	??_IntServer+5,fsr1h+0
  9835  0000BC  C009  FFE1         	movff	??_IntServer+4,fsr1l+0
  9836  0000C0  C008  FFEA         	movff	??_IntServer+3,fsr0h+0
  9837  0000C4  C007  FFE9         	movff	??_IntServer+2,fsr0l+0
  9838  0000C8  C006  FFFB         	movff	??_IntServer+1,pclat+1
  9839  0000CC  C005  FFFA         	movff	??_IntServer+0,pclat+0
  9840  0000D0  0011               	retfie f
  9841                           	opt stack 0
  9842                           GLOBAL	__end_of_IntServer
  9843  0000D2                     	__end_of_IntServer:
  9844                           	signat	_IntServer,88
  9845                           	global	_TMR0IntServer
  9846                           
  9847 ;; *************** function _TMR0IntServer *****************
  9848 ;; Defined at:
  9849 ;;		line 241 in file "E:\WorkSpace\YellowFlashingController20140317\YellowFlash.C"
  9850 ;; Parameters:    Size  Location     Type
  9851 ;;		None
  9852 ;; Auto vars:     Size  Location     Type
  9853 ;;		None
  9854 ;; Return value:  Size  Location     Type
  9855 ;;		None               void
  9856 ;; Registers used:
  9857 ;;		wreg, status,2
  9858 ;; Tracked objects:
  9859 ;;		On entry : 0/0
  9860 ;;		On exit  : 0/0
  9861 ;;		Unchanged: 0/0
  9862 ;; Data sizes:     COMRAM   BANK0   BANK1   BANK2   BANK3   BANK4   BANK5   BANK6   BANK7   BANK8   BANK9  BANK10  BANK1
       1  BANK12  BANK13  BANK14
  9863 ;;      Params:         0       0       0       0       0       0       0       0       0       0       0       0       
       0       0       0       0
  9864 ;;      Locals:         0       0       0       0       0       0       0       0       0       0       0       0       
       0       0       0       0
  9865 ;;      Temps:          0       0       0       0       0       0       0       0       0       0       0       0       
       0       0       0       0
  9866 ;;      Totals:         0       0       0       0       0       0       0       0       0       0       0       0       
       0       0       0       0
  9867 ;;Total ram usage:        0 bytes
  9868 ;; Hardware stack levels used:    1
  9869 ;; This function calls:
  9870 ;;		Nothing
  9871 ;; This function is called by:
  9872 ;;		_IntServer
  9873 ;; This function uses a non-reentrant model
  9874 ;;
  9875                           psect	text28,class=CODE,space=0,reloc=2
  9876                           global __ptext28
  9877  001B96                     __ptext28:
  9878                           psect	text28
  9879                           	file	"E:\WorkSpace\YellowFlashingController20140317\YellowFlash.C"
  9880                           	line	241
  9881                           	global	__size_of_TMR0IntServer
  9882  0000                     	__size_of_TMR0IntServer	equ	__end_of_TMR0IntServer-_TMR0IntServer
  9883                           	
  9884  001B96                     _TMR0IntServer:
  9885                           	opt	stack 24
  9886                           	line	243
  9887                           	
  9888  001B96                     i2l1775:
  9889                           ;YellowFlash.C: 243: TMR0H = 0xd8;
  9890  001B96  0ED8               	movlw	low(0D8h)
  9891  001B98  6ED7               	movwf	((c:4055)),c	;volatile
  9892                           	line	244
  9893                           ;YellowFlash.C: 244: TMR0L = 0xef;
  9894  001B9A  0EEF               	movlw	low(0EFh)
  9895  001B9C  6ED6               	movwf	((c:4054)),c	;volatile
  9896                           	line	248
  9897                           	
  9898  001B9E                     i2l1777:
  9899                           ;YellowFlash.C: 248: time5ms = 1;
  9900  001B9E  0100               	movlb	(_time5ms/8) >> 8
  9901  001BA0  844D               	bsf	(_time5ms/8),c,(_time5ms)&7
  9902                           	line	249
  9903                           	
  9904  001BA2                     i2l502:
  9905  001BA2  0012               	return
  9906                           	opt stack 0
  9907                           GLOBAL	__end_of_TMR0IntServer
  9908  001BA4                     	__end_of_TMR0IntServer:
  9909                           	signat	_TMR0IntServer,88
  9910                           	global	_TMR1IntServer
  9911                           
  9912 ;; *************** function _TMR1IntServer *****************
  9913 ;; Defined at:
  9914 ;;		line 253 in file "E:\WorkSpace\YellowFlashingController20140317\YellowFlash.C"
  9915 ;; Parameters:    Size  Location     Type
  9916 ;;		None
  9917 ;; Auto vars:     Size  Location     Type
  9918 ;;		None
  9919 ;; Return value:  Size  Location     Type
  9920 ;;		None               void
  9921 ;; Registers used:
  9922 ;;		wreg, status,2, status,0, cstack
  9923 ;; Tracked objects:
  9924 ;;		On entry : 0/0
  9925 ;;		On exit  : 0/0
  9926 ;;		Unchanged: 0/0
  9927 ;; Data sizes:     COMRAM   BANK0   BANK1   BANK2   BANK3   BANK4   BANK5   BANK6   BANK7   BANK8   BANK9  BANK10  BANK1
       1  BANK12  BANK13  BANK14
  9928 ;;      Params:         0       0       0       0       0       0       0       0       0       0       0       0       
       0       0       0       0
  9929 ;;      Locals:         0       0       0       0       0       0       0       0       0       0       0       0       
       0       0       0       0
  9930 ;;      Temps:          0       0       0       0       0       0       0       0       0       0       0       0       
       0       0       0       0
  9931 ;;      Totals:         0       0       0       0       0       0       0       0       0       0       0       0       
       0       0       0       0
  9932 ;;Total ram usage:        0 bytes
  9933 ;; Hardware stack levels used:    1
  9934 ;; Hardware stack levels required when called:    2
  9935 ;; This function calls:
  9936 ;;		_YellowFlash
  9937 ;; This function is called by:
  9938 ;;		_IntServer
  9939 ;; This function uses a non-reentrant model
  9940 ;;
  9941                           psect	text29,class=CODE,space=0,reloc=2
  9942                           global __ptext29
  9943  0019CE                     __ptext29:
  9944                           psect	text29
  9945                           	file	"E:\WorkSpace\YellowFlashingController20140317\YellowFlash.C"
  9946                           	line	253
  9947                           	global	__size_of_TMR1IntServer
  9948  0000                     	__size_of_TMR1IntServer	equ	__end_of_TMR1IntServer-_TMR1IntServer
  9949                           	
  9950  0019CE                     _TMR1IntServer:
  9951                           	opt	stack 22
  9952                           	line	255
  9953                           	
  9954  0019CE                     i2l4637:
  9955                           ;YellowFlash.C: 255: TMR1H = 0x3c;
  9956  0019CE  0E3C               	movlw	low(03Ch)
  9957  0019D0  6ECF               	movwf	((c:4047)),c	;volatile
  9958                           	line	256
  9959                           ;YellowFlash.C: 256: TMR1L = 0xaf;
  9960  0019D2  0EAF               	movlw	low(0AFh)
  9961  0019D4  6ECE               	movwf	((c:4046)),c	;volatile
  9962                           	line	259
  9963                           	
  9964  0019D6                     i2l4639:
  9965                           ;YellowFlash.C: 259: t1_cont++;
  9966  0019D6  0100               	movlb	0	; () banked
  9967  0019D8  0100               	movlb	0	; () banked
  9968  0019DA  4BAE               	infsnz	((_t1_cont))&0ffh
  9969  0019DC  2BAF               	incf	((_t1_cont+1))&0ffh
  9970                           	line	268
  9971                           	
  9972  0019DE                     i2l4641:
  9973                           ;YellowFlash.C: 268: if(t1_cont>=time_counter)
  9974  0019DE  0100               	movlb	0	; () banked
  9975  0019E0  0100               	movlb	0	; () banked
  9976  0019E2  51B0               	movf	((_time_counter))&0ffh,w
  9977  0019E4  0100               	movlb	0	; () banked
  9978  0019E6  0100               	movlb	0	; () banked
  9979  0019E8  5DAE               	subwf	((_t1_cont))&0ffh,w
  9980  0019EA  0100               	movlb	0	; () banked
  9981  0019EC  0100               	movlb	0	; () banked
  9982  0019EE  51B1               	movf	((_time_counter+1))&0ffh,w
  9983  0019F0  0100               	movlb	0	; () banked
  9984  0019F2  0100               	movlb	0	; () banked
  9985  0019F4  59AF               	subwfb	((_t1_cont+1))&0ffh,w
  9986  0019F6  A0D8               	btfss	status,0
  9987  0019F8  D001               	goto	i2u356_41
  9988  0019FA  D001               	goto	i2u356_40
  9989  0019FC                     i2u356_41:
  9990  0019FC  D00A               	goto	i2l506
  9991  0019FE                     i2u356_40:
  9992                           	line	270
  9993                           	
  9994  0019FE                     i2l4643:
  9995                           ;YellowFlash.C: 269: {
  9996                           ;YellowFlash.C: 270: t1_cont=0;
  9997  0019FE  0E00               	movlw	high(0)
  9998  001A00  0100               	movlb	0	; () banked
  9999  001A02  0100               	movlb	0	; () banked
 10000  001A04  6FAF               	movwf	((_t1_cont+1))&0ffh
 10001  001A06  0E00               	movlw	low(0)
 10002  001A08  0100               	movlb	0	; () banked
 10003  001A0A  6FAE               	movwf	((_t1_cont))&0ffh
 10004                           	line	271
 10005                           	
 10006  001A0C                     i2l4645:
 10007                           ;YellowFlash.C: 271: YellowFlash();
 10008  001A0C  EC9A  F00D         	call	_YellowFlash	;wreg free
 10009  001A10  D000               	goto	i2l506
 10010                           	line	272
 10011                           	
 10012  001A12                     i2l505:
 10013                           	line	274
 10014                           	
 10015  001A12                     i2l506:
 10016  001A12  0012               	return
 10017                           	opt stack 0
 10018                           GLOBAL	__end_of_TMR1IntServer
 10019  001A14                     	__end_of_TMR1IntServer:
 10020                           	signat	_TMR1IntServer,88
 10021                           	global	_YellowFlash
 10022                           
 10023 ;; *************** function _YellowFlash *****************
 10024 ;; Defined at:
 10025 ;;		line 224 in file "E:\WorkSpace\YellowFlashingController20140317\YellowFlash.C"
 10026 ;; Parameters:    Size  Location     Type
 10027 ;;		None
 10028 ;; Auto vars:     Size  Location     Type
 10029 ;;		None
 10030 ;; Return value:  Size  Location     Type
 10031 ;;		None               void
 10032 ;; Registers used:
 10033 ;;		wreg, status,2, status,0, cstack
 10034 ;; Tracked objects:
 10035 ;;		On entry : 0/0
 10036 ;;		On exit  : 0/0
 10037 ;;		Unchanged: 0/0
 10038 ;; Data sizes:     COMRAM   BANK0   BANK1   BANK2   BANK3   BANK4   BANK5   BANK6   BANK7   BANK8   BANK9  BANK10  BANK1
       1  BANK12  BANK13  BANK14
 10039 ;;      Params:         0       0       0       0       0       0       0       0       0       0       0       0       
       0       0       0       0
 10040 ;;      Locals:         0       0       0       0       0       0       0       0       0       0       0       0       
       0       0       0       0
 10041 ;;      Temps:          0       0       0       0       0       0       0       0       0       0       0       0       
       0       0       0       0
 10042 ;;      Totals:         0       0       0       0       0       0       0       0       0       0       0       0       
       0       0       0       0
 10043 ;;Total ram usage:        0 bytes
 10044 ;; Hardware stack levels used:    1
 10045 ;; Hardware stack levels required when called:    1
 10046 ;; This function calls:
 10047 ;;		_LED_On_Disp
 10048 ;;		_LED_Off_Disp
 10049 ;; This function is called by:
 10050 ;;		_TMR1IntServer
 10051 ;; This function uses a non-reentrant model
 10052 ;;
 10053                           psect	text30,class=CODE,space=0,reloc=2
 10054                           global __ptext30
 10055  001B34                     __ptext30:
 10056                           psect	text30
 10057                           	file	"E:\WorkSpace\YellowFlashingController20140317\YellowFlash.C"
 10058                           	line	224
 10059                           	global	__size_of_YellowFlash
 10060  0000                     	__size_of_YellowFlash	equ	__end_of_YellowFlash-_YellowFlash
 10061                           	
 10062  001B34                     _YellowFlash:
 10063                           	opt	stack 22
 10064                           	line	225
 10065                           	
 10066  001B34                     i2l4629:
 10067                           ;YellowFlash.C: 225: if(turnoff)
 10068  001B34  504A               	movf	((c:_turnoff)),c,w
 10069  001B36  B4D8               	btfsc	status,2
 10070  001B38  D001               	goto	i2u354_41
 10071  001B3A  D001               	goto	i2u354_40
 10072  001B3C                     i2u354_41:
 10073  001B3C  D00C               	goto	i2l499
 10074  001B3E                     i2u354_40:
 10075                           	line	227
 10076                           	
 10077  001B3E                     i2l4631:
 10078                           ;YellowFlash.C: 226: {
 10079                           ;YellowFlash.C: 227: if(switchmode)
 10080  001B3E  0100               	movlb	(_switchmode/8) >> 8
 10081  001B40  A24D               	btfss	(_switchmode/8),c,(_switchmode)&7
 10082  001B42  D001               	goto	i2u355_41
 10083  001B44  D001               	goto	i2u355_40
 10084  001B46                     i2u355_41:
 10085  001B46  D003               	goto	i2l4635
 10086  001B48                     i2u355_40:
 10087                           	line	229
 10088                           	
 10089  001B48                     i2l4633:
 10090                           ;YellowFlash.C: 228: {
 10091                           ;YellowFlash.C: 229: LED_On_Disp();
 10092  001B48  EC0A  F00D         	call	_LED_On_Disp	;wreg free
 10093                           	line	230
 10094                           ;YellowFlash.C: 230: }
 10095  001B4C  D004               	goto	i2l499
 10096                           	line	231
 10097                           	
 10098  001B4E                     i2l497:
 10099                           	line	233
 10100                           	
 10101  001B4E                     i2l4635:
 10102                           ;YellowFlash.C: 231: else
 10103                           ;YellowFlash.C: 232: {
 10104                           ;YellowFlash.C: 233: LED_Off_Disp();
 10105  001B4E  EC24  F00D         	call	_LED_Off_Disp	;wreg free
 10106  001B52  D001               	goto	i2l499
 10107                           	line	234
 10108                           	
 10109  001B54                     i2l498:
 10110  001B54  D000               	goto	i2l499
 10111                           	line	235
 10112                           	
 10113  001B56                     i2l496:
 10114                           	line	236
 10115                           	
 10116  001B56                     i2l499:
 10117  001B56  0012               	return
 10118                           	opt stack 0
 10119                           GLOBAL	__end_of_YellowFlash
 10120  001B58                     	__end_of_YellowFlash:
 10121                           	signat	_YellowFlash,88
 10122                           	global	_LED_On_Disp
 10123                           
 10124 ;; *************** function _LED_On_Disp *****************
 10125 ;; Defined at:
 10126 ;;		line 174 in file "E:\WorkSpace\YellowFlashingController20140317\YellowFlash.C"
 10127 ;; Parameters:    Size  Location     Type
 10128 ;;		None
 10129 ;; Auto vars:     Size  Location     Type
 10130 ;;		None
 10131 ;; Return value:  Size  Location     Type
 10132 ;;		None               void
 10133 ;; Registers used:
 10134 ;;		wreg, status,2, status,0
 10135 ;; Tracked objects:
 10136 ;;		On entry : 0/0
 10137 ;;		On exit  : 0/0
 10138 ;;		Unchanged: 0/0
 10139 ;; Data sizes:     COMRAM   BANK0   BANK1   BANK2   BANK3   BANK4   BANK5   BANK6   BANK7   BANK8   BANK9  BANK10  BANK1
       1  BANK12  BANK13  BANK14
 10140 ;;      Params:         0       0       0       0       0       0       0       0       0       0       0       0       
       0       0       0       0
 10141 ;;      Locals:         0       0       0       0       0       0       0       0       0       0       0       0       
       0       0       0       0
 10142 ;;      Temps:          0       0       0       0       0       0       0       0       0       0       0       0       
       0       0       0       0
 10143 ;;      Totals:         0       0       0       0       0       0       0       0       0       0       0       0       
       0       0       0       0
 10144 ;;Total ram usage:        0 bytes
 10145 ;; Hardware stack levels used:    1
 10146 ;; This function calls:
 10147 ;;		Nothing
 10148 ;; This function is called by:
 10149 ;;		_YellowFlash
 10150 ;; This function uses a non-reentrant model
 10151 ;;
 10152                           psect	text31,class=CODE,space=0,reloc=2
 10153                           global __ptext31
 10154  001A14                     __ptext31:
 10155                           psect	text31
 10156                           	file	"E:\WorkSpace\YellowFlashingController20140317\YellowFlash.C"
 10157                           	line	174
 10158                           	global	__size_of_LED_On_Disp
 10159  0000                     	__size_of_LED_On_Disp	equ	__end_of_LED_On_Disp-_LED_On_Disp
 10160                           	
 10161  001A14                     _LED_On_Disp:
 10162                           	opt	stack 22
 10163                           	line	175
 10164                           	
 10165  001A14                     i2l3865:
 10166                           ;YellowFlash.C: 175: switch(run_mode)
 10167  001A14  D00A               	goto	i2l3869
 10168                           	line	180
 10169                           ;YellowFlash.C: 176: {
 10170                           ;YellowFlash.C: 180: case 0x01:
 10171                           	
 10172  001A16                     i2l481:
 10173                           	line	181
 10174                           ;YellowFlash.C: 181: RC6=0;
 10175  001A16  9C82               	bcf	c:(31766/8),(31766)&7	;volatile
 10176                           	line	182
 10177                           ;YellowFlash.C: 182: RC4=0;
 10178  001A18  9882               	bcf	c:(31764/8),(31764)&7	;volatile
 10179                           	line	183
 10180                           ;YellowFlash.C: 183: RD3=0;
 10181  001A1A  9683               	bcf	c:(31771/8),(31771)&7	;volatile
 10182                           	line	184
 10183                           ;YellowFlash.C: 184: break;
 10184  001A1C  D00E               	goto	i2l482
 10185                           	line	186
 10186                           ;YellowFlash.C: 186: case 0x02:
 10187                           	
 10188  001A1E                     i2l483:
 10189                           	line	187
 10190                           ;YellowFlash.C: 187: RC6=1;
 10191  001A1E  8C82               	bsf	c:(31766/8),(31766)&7	;volatile
 10192                           	line	188
 10193                           ;YellowFlash.C: 188: RC4=1;
 10194  001A20  8882               	bsf	c:(31764/8),(31764)&7	;volatile
 10195                           	line	189
 10196                           ;YellowFlash.C: 189: RD3=0;
 10197  001A22  9683               	bcf	c:(31771/8),(31771)&7	;volatile
 10198                           	line	190
 10199                           ;YellowFlash.C: 190: break;
 10200  001A24  D00A               	goto	i2l482
 10201                           	line	191
 10202                           ;YellowFlash.C: 191: default:
 10203                           	
 10204  001A26                     i2l484:
 10205                           	line	192
 10206                           ;YellowFlash.C: 192: break;
 10207  001A26  D009               	goto	i2l482
 10208                           	line	193
 10209                           	
 10210  001A28                     i2l3867:
 10211                           ;YellowFlash.C: 193: }
 10212  001A28  D008               	goto	i2l482
 10213                           	line	175
 10214                           	
 10215  001A2A                     i2l480:
 10216                           	
 10217  001A2A                     i2l3869:
 10218  001A2A  5041               	movf	((c:_run_mode)),c,w
 10219                           	; Switch size 1, requested type "space"
 10220                           ; Number of cases is 2, Range of values is 1 to 2
 10221                           ; switch strategies available:
 10222                           ; Name         Instructions Cycles
 10223                           ; simple_byte            7     4 (average)
 10224                           ;	Chosen strategy is simple_byte
 10225                           
 10226  001A2C  0A01               	xorlw	1^0	; case 1
 10227  001A2E  B4D8               	skipnz
 10228  001A30  D7F2               	goto	i2l481
 10229  001A32  0A03               	xorlw	2^1	; case 2
 10230  001A34  B4D8               	skipnz
 10231  001A36  D7F3               	goto	i2l483
 10232  001A38  D000               	goto	i2l482
 10233                           
 10234                           	line	193
 10235                           	
 10236  001A3A                     i2l482:
 10237                           	line	195
 10238                           ;YellowFlash.C: 195: time_counter=time_on_counter;
 10239  001A3A  C0B4  F0B0         	movff	(_time_on_counter),(_time_counter)
 10240  001A3E  C0B5  F0B1         	movff	(_time_on_counter+1),(_time_counter+1)
 10241                           	line	196
 10242                           ;YellowFlash.C: 196: switchmode=0;
 10243  001A42  0100               	movlb	(_switchmode/8) >> 8
 10244  001A44  924D               	bcf	(_switchmode/8),c,(_switchmode)&7
 10245                           	line	197
 10246                           	
 10247  001A46                     i2l485:
 10248  001A46  0012               	return
 10249                           	opt stack 0
 10250                           GLOBAL	__end_of_LED_On_Disp
 10251  001A48                     	__end_of_LED_On_Disp:
 10252                           	signat	_LED_On_Disp,88
 10253                           	global	_LED_Off_Disp
 10254                           
 10255 ;; *************** function _LED_Off_Disp *****************
 10256 ;; Defined at:
 10257 ;;		line 199 in file "E:\WorkSpace\YellowFlashingController20140317\YellowFlash.C"
 10258 ;; Parameters:    Size  Location     Type
 10259 ;;		None
 10260 ;; Auto vars:     Size  Location     Type
 10261 ;;		None
 10262 ;; Return value:  Size  Location     Type
 10263 ;;		None               void
 10264 ;; Registers used:
 10265 ;;		wreg, status,2, status,0
 10266 ;; Tracked objects:
 10267 ;;		On entry : 0/0
 10268 ;;		On exit  : 0/0
 10269 ;;		Unchanged: 0/0
 10270 ;; Data sizes:     COMRAM   BANK0   BANK1   BANK2   BANK3   BANK4   BANK5   BANK6   BANK7   BANK8   BANK9  BANK10  BANK1
       1  BANK12  BANK13  BANK14
 10271 ;;      Params:         0       0       0       0       0       0       0       0       0       0       0       0       
       0       0       0       0
 10272 ;;      Locals:         0       0       0       0       0       0       0       0       0       0       0       0       
       0       0       0       0
 10273 ;;      Temps:          0       0       0       0       0       0       0       0       0       0       0       0       
       0       0       0       0
 10274 ;;      Totals:         0       0       0       0       0       0       0       0       0       0       0       0       
       0       0       0       0
 10275 ;;Total ram usage:        0 bytes
 10276 ;; Hardware stack levels used:    1
 10277 ;; This function calls:
 10278 ;;		Nothing
 10279 ;; This function is called by:
 10280 ;;		_YellowFlash
 10281 ;; This function uses a non-reentrant model
 10282 ;;
 10283                           psect	text32,class=CODE,space=0,reloc=2
 10284                           global __ptext32
 10285  001A48                     __ptext32:
 10286                           psect	text32
 10287                           	file	"E:\WorkSpace\YellowFlashingController20140317\YellowFlash.C"
 10288                           	line	199
 10289                           	global	__size_of_LED_Off_Disp
 10290  0000                     	__size_of_LED_Off_Disp	equ	__end_of_LED_Off_Disp-_LED_Off_Disp
 10291                           	
 10292  001A48                     _LED_Off_Disp:
 10293                           	opt	stack 22
 10294                           	line	200
 10295                           	
 10296  001A48                     i2l3871:
 10297                           ;YellowFlash.C: 200: switch(run_mode)
 10298  001A48  D00A               	goto	i2l3875
 10299                           	line	204
 10300                           ;YellowFlash.C: 201: {
 10301                           ;YellowFlash.C: 204: case 0x01:
 10302                           	
 10303  001A4A                     i2l489:
 10304                           	line	205
 10305                           ;YellowFlash.C: 205: RC6=1;
 10306  001A4A  8C82               	bsf	c:(31766/8),(31766)&7	;volatile
 10307                           	line	206
 10308                           ;YellowFlash.C: 206: RC4=1;
 10309  001A4C  8882               	bsf	c:(31764/8),(31764)&7	;volatile
 10310                           	line	207
 10311                           ;YellowFlash.C: 207: RD3=1;
 10312  001A4E  8683               	bsf	c:(31771/8),(31771)&7	;volatile
 10313                           	line	208
 10314                           ;YellowFlash.C: 208: break;
 10315  001A50  D00E               	goto	i2l490
 10316                           	line	209
 10317                           ;YellowFlash.C: 209: case 0x02:
 10318                           	
 10319  001A52                     i2l491:
 10320                           	line	210
 10321                           ;YellowFlash.C: 210: RC6=0;
 10322  001A52  9C82               	bcf	c:(31766/8),(31766)&7	;volatile
 10323                           	line	211
 10324                           ;YellowFlash.C: 211: RC4=0;
 10325  001A54  9882               	bcf	c:(31764/8),(31764)&7	;volatile
 10326                           	line	212
 10327                           ;YellowFlash.C: 212: RD3=1;
 10328  001A56  8683               	bsf	c:(31771/8),(31771)&7	;volatile
 10329                           	line	213
 10330                           ;YellowFlash.C: 213: break;
 10331  001A58  D00A               	goto	i2l490
 10332                           	line	214
 10333                           ;YellowFlash.C: 214: default:
 10334                           	
 10335  001A5A                     i2l492:
 10336                           	line	215
 10337                           ;YellowFlash.C: 215: break;
 10338  001A5A  D009               	goto	i2l490
 10339                           	line	216
 10340                           	
 10341  001A5C                     i2l3873:
 10342                           ;YellowFlash.C: 216: }
 10343  001A5C  D008               	goto	i2l490
 10344                           	line	200
 10345                           	
 10346  001A5E                     i2l488:
 10347                           	
 10348  001A5E                     i2l3875:
 10349  001A5E  5041               	movf	((c:_run_mode)),c,w
 10350                           	; Switch size 1, requested type "space"
 10351                           ; Number of cases is 2, Range of values is 1 to 2
 10352                           ; switch strategies available:
 10353                           ; Name         Instructions Cycles
 10354                           ; simple_byte            7     4 (average)
 10355                           ;	Chosen strategy is simple_byte
 10356                           
 10357  001A60  0A01               	xorlw	1^0	; case 1
 10358  001A62  B4D8               	skipnz
 10359  001A64  D7F2               	goto	i2l489
 10360  001A66  0A03               	xorlw	2^1	; case 2
 10361  001A68  B4D8               	skipnz
 10362  001A6A  D7F3               	goto	i2l491
 10363  001A6C  D000               	goto	i2l490
 10364                           
 10365                           	line	216
 10366                           	
 10367  001A6E                     i2l490:
 10368                           	line	217
 10369                           ;YellowFlash.C: 217: time_counter=time_off_counter;
 10370  001A6E  C0B2  F0B0         	movff	(_time_off_counter),(_time_counter)
 10371  001A72  C0B3  F0B1         	movff	(_time_off_counter+1),(_time_counter+1)
 10372                           	line	218
 10373                           ;YellowFlash.C: 218: switchmode=1;
 10374  001A76  0100               	movlb	(_switchmode/8) >> 8
 10375  001A78  824D               	bsf	(_switchmode/8),c,(_switchmode)&7
 10376                           	line	219
 10377                           	
 10378  001A7A                     i2l493:
 10379  001A7A  0012               	return
 10380                           	opt stack 0
 10381                           GLOBAL	__end_of_LED_Off_Disp
 10382  001A7C                     	__end_of_LED_Off_Disp:
 10383                           	signat	_LED_Off_Disp,88
 10384                           	global	_ADIntServer
 10385                           
 10386 ;; *************** function _ADIntServer *****************
 10387 ;; Defined at:
 10388 ;;		line 278 in file "E:\WorkSpace\YellowFlashingController20140317\YellowFlash.C"
 10389 ;; Parameters:    Size  Location     Type
 10390 ;;		None
 10391 ;; Auto vars:     Size  Location     Type
 10392 ;;  adrel           2    2[COMRAM] unsigned int 
 10393 ;; Return value:  Size  Location     Type
 10394 ;;		None               void
 10395 ;; Registers used:
 10396 ;;		wreg, status,2, status,0
 10397 ;; Tracked objects:
 10398 ;;		On entry : 0/0
 10399 ;;		On exit  : 0/0
 10400 ;;		Unchanged: 0/0
 10401 ;; Data sizes:     COMRAM   BANK0   BANK1   BANK2   BANK3   BANK4   BANK5   BANK6   BANK7   BANK8   BANK9  BANK10  BANK1
       1  BANK12  BANK13  BANK14
 10402 ;;      Params:         0       0       0       0       0       0       0       0       0       0       0       0       
       0       0       0       0
 10403 ;;      Locals:         2       0       0       0       0       0       0       0       0       0       0       0       
       0       0       0       0
 10404 ;;      Temps:          2       0       0       0       0       0       0       0       0       0       0       0       
       0       0       0       0
 10405 ;;      Totals:         4       0       0       0       0       0       0       0       0       0       0       0       
       0       0       0       0
 10406 ;;Total ram usage:        4 bytes
 10407 ;; Hardware stack levels used:    1
 10408 ;; This function calls:
 10409 ;;		Nothing
 10410 ;; This function is called by:
 10411 ;;		_IntServer
 10412 ;; This function uses a non-reentrant model
 10413 ;;
 10414                           psect	text33,class=CODE,space=0,reloc=2
 10415                           global __ptext33
 10416  001B58                     __ptext33:
 10417                           psect	text33
 10418                           	file	"E:\WorkSpace\YellowFlashingController20140317\YellowFlash.C"
 10419                           	line	278
 10420                           	global	__size_of_ADIntServer
 10421  0000                     	__size_of_ADIntServer	equ	__end_of_ADIntServer-_ADIntServer
 10422                           	
 10423  001B58                     _ADIntServer:
 10424                           	opt	stack 24
 10425                           	line	279
 10426                           	
 10427  001B58                     i2l1779:
 10428                           ;YellowFlash.C: 279: unsigned int adrel=0x0000;
 10429  001B58  0E00               	movlw	high(0)
 10430  001B5A  6E04               	movwf	((c:ADIntServer@adrel+1)),c
 10431  001B5C  0E00               	movlw	low(0)
 10432  001B5E  6E03               	movwf	((c:ADIntServer@adrel)),c
 10433                           	line	281
 10434                           	
 10435  001B60                     i2l1781:
 10436                           ;YellowFlash.C: 281: adrel = (ADRESH<<8)|ADRESL;
 10437  001B60  50C3               	movf	((c:4035)),c,w	;volatile
 10438  001B62  CFC4 F001          	movff	(c:4036),??_ADIntServer+0+0	;volatile
 10439  001B66  6A02               	clrf	(??_ADIntServer+0+0+1)&0ffh,c
 10440  001B68  C001  F002         	movff	??_ADIntServer+0+0,??_ADIntServer+0+1
 10441  001B6C  6A01               	clrf	(??_ADIntServer+0+0),c
 10442  001B6E  1001               	iorwf	(??_ADIntServer+0+0),c,w
 10443                           	
 10444  001B70  6E03               	movwf	((c:ADIntServer@adrel)),c
 10445  001B72  5002               	movf	(??_ADIntServer+0+1),c,w
 10446  001B74  6E04               	movwf	1+((c:ADIntServer@adrel)),c
 10447                           	line	282
 10448                           	
 10449  001B76                     i2l509:
 10450  001B76  0012               	return
 10451                           	opt stack 0
 10452                           GLOBAL	__end_of_ADIntServer
 10453  001B78                     	__end_of_ADIntServer:
 10454                           	signat	_ADIntServer,88
 10455                           	GLOBAL	__activetblptr
 10456  0000                     __activetblptr	EQU	0
 10457                           	psect	intsave_regs,class=BIGRAM,space=1
 10458                           psect	text34,class=CODE,space=0,reloc=2
 10459                           global __ptext34
 10460  000000                     __ptext34:
 10461                           	PSECT	rparam,class=COMRAM,space=1
 10462                           	GLOBAL	__Lrparam
 10463                           	FNCONF	rparam,??,?
 10464                           GLOBAL	__Lparam, __Hparam
 10465                           GLOBAL	__Lrparam, __Hrparam
 10466  0000                     __Lparam	EQU	__Lrparam
 10467  0000                     __Hparam	EQU	__Hrparam


Data Sizes:
    Strings     0
    Constant    0
    Data        130
    BSS         695
    Persistent  0
    Stack       0

Auto Spaces:
    Space          Size  Autos    Used
    COMRAM           95     59      77
    BANK0           160     22     142
    BANK1           256      0      48
    BANK2           256      0       0
    BANK3           256      0       0
    BANK4           256      0       0
    BANK5           256      0       0
    BANK6           256      0       0
    BANK7           256      0       0
    BANK8           256      0       0
    BANK9           256      0       0
    BANK10          256      0       0
    BANK11          256      0       0
    BANK12          256      0       0
    BANK13          256      0       0
    BANK14           65      0       0

Pointer List with Targets:

    ?___ftpack	float  size(2) Largest target is 0

    CANSend@id	PTR unsigned char  size(2) Largest target is 4
		 -> CANSid(BANK0[4]), 

    ?___lwdiv	unsigned int  size(2) Largest target is 0

    ?___fttol	long  size(2) Largest target is 0

    ?___ftmul	float  size(2) Largest target is 0

    CANDATAAnalyzing@id	PTR unsigned char  size(2) Largest target is 4
		 -> CANRid(BANK0[4]), 

    CANDATAAnalyzing@dat	PTR unsigned char  size(2) Largest target is 8
		 -> CANRdata(BANK0[8]), 

    EEPROMWrite@num	PTR unsigned char  size(2) Largest target is 1
		 -> eeprom_num(COMRAM[1]), 

    EEPROMWrite@dat	PTR unsigned char  size(2) Largest target is 8
		 -> readwrite(COMRAM[2]), CANRdata(BANK0[8]), 

    EEPROMWrite@addr	PTR unsigned char  size(2) Largest target is 2
		 -> eeprom_addr(COMRAM[2]), 

    EEPROMRead@num	PTR unsigned char  size(2) Largest target is 1
		 -> eeprom_num(COMRAM[1]), 

    EEPROMRead@dat	PTR unsigned char  size(2) Largest target is 8
		 -> yflash_CFG(COMRAM[2]), readwrite(COMRAM[2]), CANSdata(BANK0[8]), 

    EEPROMRead@addr	PTR unsigned char  size(2) Largest target is 2
		 -> eeprom_addr(COMRAM[2]), 

    CANRecv@dat	PTR unsigned char  size(2) Largest target is 8
		 -> CANRdata(BANK0[8]), 

    CANRecv@dlc	PTR unsigned char  size(2) Largest target is 1
		 -> CANRdlc(COMRAM[1]), 

    CANRecv@id	PTR unsigned char  size(2) Largest target is 4
		 -> CANRid(BANK0[4]), 

    CANSend@dat	PTR unsigned char  size(2) Largest target is 8
		 -> CANSdata(BANK0[8]), 


Critical Paths under _main in COMRAM

    _CANRecv->_CANInit
    _GetAddr->_GetLampBoardAddr
    _CANInit->_GetAddr
    _delayms->_delayus
    _CANDATAAnalyzing->_YFlashNewConfigure
    _CANSendConfirm->_CANSend
    _CANWriteID->_CANSendID
    _CANSendID->_EEPROMRead
    _CalculateTime25msCounter->___fttol
    _HeartbeatTest->_Read_YFlash_CFG
    _Read_YFlash_CFG->_EEPROMRead
    ___ftmul->___ftpack
    ___fttol->___ftmul

Critical Paths under _IntServer in COMRAM

    _IntServer->_ADIntServer

Critical Paths under _main in BANK0

    _main->_CANDATAAnalyzing
    _YFlashNewConfigure->_CalculateTime25msCounter

Critical Paths under _IntServer in BANK0

    None.

Critical Paths under _main in BANK1

    None.

Critical Paths under _IntServer in BANK1

    None.

Critical Paths under _main in BANK2

    None.

Critical Paths under _IntServer in BANK2

    None.

Critical Paths under _main in BANK3

    None.

Critical Paths under _IntServer in BANK3

    None.

Critical Paths under _main in BANK4

    None.

Critical Paths under _IntServer in BANK4

    None.

Critical Paths under _main in BANK5

    None.

Critical Paths under _IntServer in BANK5

    None.

Critical Paths under _main in BANK6

    None.

Critical Paths under _IntServer in BANK6

    None.

Critical Paths under _main in BANK7

    None.

Critical Paths under _IntServer in BANK7

    None.

Critical Paths under _main in BANK8

    None.

Critical Paths under _IntServer in BANK8

    None.

Critical Paths under _main in BANK9

    None.

Critical Paths under _IntServer in BANK9

    None.

Critical Paths under _main in BANK10

    None.

Critical Paths under _IntServer in BANK10

    None.

Critical Paths under _main in BANK11

    None.

Critical Paths under _IntServer in BANK11

    None.

Critical Paths under _main in BANK12

    None.

Critical Paths under _IntServer in BANK12

    None.

Critical Paths under _main in BANK13

    None.

Critical Paths under _IntServer in BANK13

    None.

Critical Paths under _main in BANK14

    None.

Critical Paths under _IntServer in BANK14

    None.

Call Graph Tables:

 ---------------------------------------------------------------------------------
 (Depth) Function   	        Calls       Base Space   Used Autos Params    Refs
 ---------------------------------------------------------------------------------
 (0) _main                                                 1     1      0    6895
                                             21 BANK0      1     1      0
                            _delayms
                           _PORTInit
                         _IntManager
                            _GetAddr
                            _CANInit
                            _CANRecv
                   _CANDATAAnalyzing
                      _HeartbeatTest
 ---------------------------------------------------------------------------------
 (1) _CANRecv                                              7     1      6    1175
                                             27 COMRAM     7     1      6
                            _GetAddr
                            _CANInit
 ---------------------------------------------------------------------------------
 (2) _GetAddr                                              3     2      1     141
                                             22 COMRAM     3     2      1
                   _GetLampBoardAddr
 ---------------------------------------------------------------------------------
 (3) _GetLampBoardAddr                                     4     4      0      93
                                             18 COMRAM     4     4      0
 ---------------------------------------------------------------------------------
 (2) _CANInit                                              2     1      1     176
                                             25 COMRAM     2     1      1
                           _CANSetID
                       _CANFilterSet
                          _CANErrClr
                            _GetAddr (ARG)
 ---------------------------------------------------------------------------------
 (3) _CANFilterSet                                         2     0      2      66
                                             18 COMRAM     2     0      2
 ---------------------------------------------------------------------------------
 (3) _CANErrClr                                            0     0      0       0
 ---------------------------------------------------------------------------------
 (3) _CANSetID                                             3     1      2      66
                                             18 COMRAM     3     1      2
 ---------------------------------------------------------------------------------
 (1) _delayms                                              4     2      2     115
                                             22 COMRAM     4     2      2
                            _delayus
 ---------------------------------------------------------------------------------
 (2) _delayus                                              4     2      2      69
                                             18 COMRAM     4     2      2
 ---------------------------------------------------------------------------------
 (1) _PORTInit                                             0     0      0       0
 ---------------------------------------------------------------------------------
 (1) _IntManager                                           0     0      0       0
 ---------------------------------------------------------------------------------
 (1) _CANDATAAnalyzing                                     9     4      5    5199
                                             12 BANK0      9     4      5
                     _CANSendConfirm
                          _CANSendID
                         _CANWriteID
                         _EEPROMRead
                            _CANSend
                 _YFlashNewConfigure
                    _Read_YFlash_CFG
 ---------------------------------------------------------------------------------
 (2) _CANSendConfirm                                       2     2      0     684
                                             23 COMRAM     2     2      0
                            _CANSend
 ---------------------------------------------------------------------------------
 (2) _CANWriteID                                           2     1      1     816
                                             26 COMRAM     2     1      1
                        _EEPROMWrite
                          _CANSendID
 ---------------------------------------------------------------------------------
 (3) _CANSendID                                            2     1      1     705
                                             24 COMRAM     2     1      1
                         _EEPROMRead
                            _CANSend
 ---------------------------------------------------------------------------------
 (2) _CANSend                                              5     0      5     594
                                             18 COMRAM     5     0      5
 ---------------------------------------------------------------------------------
 (2) _YFlashNewConfigure                                   1     1      0    2098
                                             58 COMRAM     1     1      0
                         _EEPROMRead
                        _EEPROMWrite
           _CalculateTime25msCounter
 ---------------------------------------------------------------------------------
 (3) _EEPROMWrite                                          6     0      6      89
                                             18 COMRAM     6     0      6
 ---------------------------------------------------------------------------------
 (3) _CalculateTime25msCounter                            12    10      2    1920
                                              0 BANK0     12    10      2
                            ___ftmul
                            ___fttol
                            ___lwdiv
 ---------------------------------------------------------------------------------
 (1) _HeartbeatTest                                        1     1      0      89
                                             25 COMRAM     1     1      0
                    _Read_YFlash_CFG
 ---------------------------------------------------------------------------------
 (2) _Read_YFlash_CFG                                      1     1      0      89
                                             24 COMRAM     1     1      0
                         _EEPROMRead
 ---------------------------------------------------------------------------------
 (3) _EEPROMRead                                           6     0      6      89
                                             18 COMRAM     6     0      6
 ---------------------------------------------------------------------------------
 (4) ___ftmul                                             17    11      6     800
                                             26 COMRAM    17    11      6
                           ___ftpack
 ---------------------------------------------------------------------------------
 (5) ___ftpack                                             8     3      5     312
                                             18 COMRAM     8     3      5
 ---------------------------------------------------------------------------------
 (4) ___fttol                                             15    11      4     371
                                             43 COMRAM    15    11      4
                            ___ftmul (ARG)
 ---------------------------------------------------------------------------------
 (4) ___lwdiv                                              8     4      4     241
                                             18 COMRAM     8     4      4
 ---------------------------------------------------------------------------------
 Estimated maximum stack depth 5
 ---------------------------------------------------------------------------------
 (Depth) Function   	        Calls       Base Space   Used Autos Params    Refs
 ---------------------------------------------------------------------------------
 (6) _IntServer                                           14    14      0       0
                                              4 COMRAM    14    14      0
                      _TMR0IntServer
                      _TMR1IntServer
                        _ADIntServer
 ---------------------------------------------------------------------------------
 (7) _TMR0IntServer                                        0     0      0       0
 ---------------------------------------------------------------------------------
 (7) _TMR1IntServer                                        0     0      0       0
                        _YellowFlash
 ---------------------------------------------------------------------------------
 (8) _YellowFlash                                          0     0      0       0
                        _LED_On_Disp
                       _LED_Off_Disp
 ---------------------------------------------------------------------------------
 (9) _LED_On_Disp                                          0     0      0       0
 ---------------------------------------------------------------------------------
 (9) _LED_Off_Disp                                         0     0      0       0
 ---------------------------------------------------------------------------------
 (7) _ADIntServer                                          4     4      0       0
                                              0 COMRAM     4     4      0
 ---------------------------------------------------------------------------------
 Estimated maximum stack depth 9
 ---------------------------------------------------------------------------------

 Call Graph Graphs:

 _main (ROOT)
   _delayms
     _delayus
   _PORTInit
   _IntManager
   _GetAddr
     _GetLampBoardAddr
   _CANInit
     _CANSetID
     _CANFilterSet
     _CANErrClr
     _GetAddr (ARG)
       _GetLampBoardAddr
   _CANRecv
     _GetAddr
       _GetLampBoardAddr
     _CANInit
       _CANSetID
       _CANFilterSet
       _CANErrClr
       _GetAddr (ARG)
         _GetLampBoardAddr
   _CANDATAAnalyzing
     _CANSendConfirm
       _CANSend
     _CANSendID
       _EEPROMRead
       _CANSend
     _CANWriteID
       _EEPROMWrite
       _CANSendID
         _EEPROMRead
         _CANSend
     _EEPROMRead
     _CANSend
     _YFlashNewConfigure
       _EEPROMRead
       _EEPROMWrite
       _CalculateTime25msCounter
         ___ftmul
           ___ftpack
         ___fttol
           ___ftmul (ARG)
             ___ftpack
         ___lwdiv
     _Read_YFlash_CFG
       _EEPROMRead
   _HeartbeatTest
     _Read_YFlash_CFG
       _EEPROMRead

 _IntServer (ROOT)
   _TMR0IntServer
   _TMR1IntServer
     _YellowFlash
       _LED_On_Disp
       _LED_Off_Disp
   _ADIntServer

 Address spaces:
Name               Size   Autos  Total    Cost      Usage
BIGRAM             E40      0     280      35       17.5%
EEDATA             400      0       0       0        0.0%
BITBANK13          100      0       0      31        0.0%
BANK13             100      0       0      32        0.0%
BITBANK12          100      0       0      29        0.0%
BANK12             100      0       0      30        0.0%
BITBANK11          100      0       0      27        0.0%
BANK11             100      0       0      28        0.0%
BITBANK10          100      0       0      25        0.0%
BANK10             100      0       0      26        0.0%
BITBANK9           100      0       0      23        0.0%
BANK9              100      0       0      24        0.0%
BITBANK8           100      0       0      21        0.0%
BANK8              100      0       0      22        0.0%
BITBANK7           100      0       0      19        0.0%
BANK7              100      0       0      20        0.0%
BITBANK6           100      0       0      17        0.0%
BANK6              100      0       0      18        0.0%
BITBANK5           100      0       0      15        0.0%
BANK5              100      0       0      16        0.0%
BITBANK4           100      0       0      13        0.0%
BANK4              100      0       0      14        0.0%
BITBANK3           100      0       0      11        0.0%
BANK3              100      0       0      12        0.0%
BITBANK2           100      0       0       9        0.0%
BANK2              100      0       0      10        0.0%
BITBANK1           100      0       0       7        0.0%
BANK1              100      0      30       8       18.8%
BITBANK0            A0      0       0       4        0.0%
BANK0               A0     16      8E       5       88.8%
BITCOMRAM           5F      0       1       0        1.1%
COMRAM              5F     3B      4D       1       81.1%
BITBANK14           41      0       0      33        0.0%
BANK14              41      0       0      34        0.0%
BITSFR_2             0      0       0      40        0.0%
SFR_2                0      0       0      40        0.0%
BITSFR_1             0      0       0      40        0.0%
SFR_1                0      0       0      40        0.0%
BITSFR               0      0       0      40        0.0%
SFR                  0      0       0      40        0.0%
STACK                0      0       D       2        0.0%
NULL                 0      0       0       0        0.0%
ABS                  0      0     10B       6        0.0%
DATA                 0      0     398       3        0.0%
CODE                 0      0       0       0        0.0%


HI-TECH Software PICC-18 Macro Assembler V9.80 build 11162 
Symbol Table                                                                                   Mon Mar 17 17:24:22 2014

         __size_of_Read_YFlash_CFG 00D0                 __size_of_CANErrClr 0002  
                              l300 1300                                l301 12BC  
                              l310 12F4                                l302 133C  
                              l303 1334                                l311 12FC  
                              l312 133C                                l304 12C4  
                              l320 18A8                                l305 12CC  
                              l321 18AA                                l330 1BA8  
                              l306 12D4                                l322 18AC  
                              l307 12DC                                l315 18BA  
                              l323 18AE                                l340 1646  
                              l308 12E4                                l324 18E6  
                              l316 188C                                l333 17AC  
                              l341 1650                                l309 12EC  
                              l317 18E2                                l350 0BB0  
                              l342 1650                                l318 1896  
                              l351 0BA0                                l327 1258  
                              l319 189E                                l352 0BA0  
                              l336 15E2                                l360 0580  
                              l353 0BAE                                l345 0AEC  
                              l337 15E2                                l361 077C  
                              l370 1934                                l354 0C74  
                              l346 0ADC                                l530 157A  
                              l522 1B32                                l338 15EC  
                              l362 0674                                l371 1934  
                              l355 0C64                                l347 0ADC  
                              l531 1588                                l339 1646  
                              l363 067E                                l380 181C  
                              l356 0C64                                l348 0AEA  
                              l532 15D8                                l364 0688  
                              l357 0C72                                l349 0C74  
                              l525 16DE                                l365 0692  
                              l374 1802                                l550 0E10  
                              l526 1716                                l390 1AB6  
                              l366 0778                                l375 17B4  
                              l535 19CC                                l527 173A  
                              l519 1B94                                l383 1AF8  
                              l391 1ADA                                l376 17F2  
                              l536 19CC                                l560 01FA  
                              l384 1AF2                                l392 1ADA  
                              l369 18E8                                l473 07A8  
                              l377 17F2                                l545 0E10  
                              l561 01BE                                l553 0120  
                              l385 1B0A                                l297 1290  
                              l474 098E                                l378 17FA  
                              l570 024C                                l562 01F8  
                              l554 00D8                                l386 1B0A  
                              l298 12A6                                l539 140C  
                              l475 07D2                                l379 1818  
                              l547 0CC4                                l563 04A8  
                              l571 02C2                                l555 0176  
                              l299 1336                                l476 096C  
                              l548 0D06                                l572 0316  
                              l564 0222                                l556 00E6  
                              l477 0A26                                l549 0D48  
                              l565 043E                                l573 0332  
                              l557 00F4                                l389 1AC8  
                              l574 03AE                                l566 0224  
                              l558 0102                                l575 03B0  
                              l567 0240                                l559 0110  
                              l568 0486                                l576 0438  
                              l592 144E                                l577 043A  
                              l569 0242                                l593 14AC  
                              l850 10DA                                l930 0E50  
                              l586 16C6                                l578 04A8  
                              l594 14BA                                l851 10F4  
                              l931 0F4E                                l587 16C4  
                              l595 14C0                                l852 10DC  
                              l844 10AA                                l932 0E8E  
                              l588 16C2                                l596 14C2  
                              l853 1116                                l933 0EC6  
                              l589 16C6                                l597 14C4  
                              l950 0F92                                l854 1124  
                              l846 109A                                l934 0EDC  
                              l598 14C4                                l951 107E  
                              l855 1118                                l847 116C  
                              l935 0EF2                                l960 104E  
                              l952 1016                                l856 112C  
                              l848 10B8                                l936 0EFC  
                              l961 106C                                l953 1002  
                              l857 1138                                l849 10AC  
                              l937 0F12                                l954 1004  
                              l858 115E                                l938 0F28  
                              l955 1014                                l956 1050  
                              l957 1034                                l958 1044  
                              l959 1036                                _RD2 007C1A  
                              _RC4 007C14                                _RD3 007C1B  
                              _RC5 007C15                                _RC6 007C16  
               __size_of_CANSendID 007E             __end_of_CANSendConfirm 173C  
                              _sta 00BE                                prod 000FF3  
                              wreg 000FE8                    __end_of_CANInit 1652  
                     ?_LED_On_Disp 0001                    __end_of_CANRecv 077E  
                  __end_of_CANSend 0C76                               l1060 1846  
                             l1061 183C                               l1062 1850  
                             l1063 1852                               l1064 1874  
                             l1065 1880                               l1066 1888  
                             l1059 1880                               l3411 126A  
                             l4221 1666                               l3501 116E  
                             l3421 1294                               l3413 1274  
                             l4231 16A0                               l4223 1674  
                             l4215 1652                               l3511 11B4  
                             l3503 1176                               l3431 12C2  
                             l3423 12A6                               l3415 127C  
                             l3407 125A                               l5201 0F4E  
                             l4241 16B4                               l4233 16A2  
                             l4225 1680                               l4217 165C  
                             l3601 0A34                               l3521 11CA  
                             l3513 11BA                               l3505 1184  
                             l3441 12D0                               l3433 12C4  
                             l3425 12BA                               l3417 128E  
                             l3409 1262                               l5211 0F7E  
                             l4243 16BC                               l4235 16A4  
                             l4227 1686                               l4219 1660  
                             l3611 0A84                               l3603 0A38  
                             l3531 11DE                               l3523 11CE  
                             l3515 11BE                               l3507 1198  
                             l3451 12DC                               l3443 12D2  
                             l3435 12C8                               l3427 12BC  
                             l3419 1290                               l5221 0FC6  
                             l5213 0F90                               l4237 16AE  
                             l4229 1694                               l3621 0AF8  
                             l3613 0A98                               l3605 0A48  
                             l3541 120C                               l3533 11E2  
                             l3525 11D2                               l3517 11C2  
                             l3509 11A0                               l3461 12EA  
                             l3453 12E0                               l3445 12D4  
                             l3437 12CA                               l3429 12C0  
                             l3701 0590                               l5231 1000  
                             l5223 0FD4                               l5215 0F92  
                             l4239 16B2                               l3631 0B48  
                             l3623 0AFC                               l3615 0AAC  
                             l3607 0A5C                               l3551 175A  
                             l3543 1210                               l3535 11E6  
                             l3527 11D6                               l3519 11C6  
                             l3471 12F8                               l3463 12EC  
                             l3455 12E2                               l3447 12D8  
                             l3439 12CC                               l3711 05E2  
                             l3703 059E                               l5241 1032  
                             l5233 1004                               l5225 0FD8  
                             l5217 0FB8                               l5209 0F50  
                             l5161 0E50                               l3801 17C4  
                             l3641 0BBC                               l3633 0B5C  
                             l3625 0B0C                               l3617 0AC0  
                             l3609 0A70                               l5321 045C  
                             l3561 178C                               l3553 176E  
                             l3545 1214                               l3537 1202  
                             l3529 11DA                               l3481 133A  
                             l3473 12FA                               l3465 12F0  
                             l3457 12E4                               l3449 12DA  
                             l3721 0638                               l3713 05F0  
                             l3705 05B0                               l5251 106C  
                             l5243 1036                               l5235 100E  
                             l5227 0FE0                               l5219 0FBA  
                             l5171 0EA0                               l5163 0E7E  
                             l5155 0E12                               l3811 17E4  
                             l3803 17CE                               l3651 0C0C  
                             l3643 0BC0                               l3635 0B70  
                             l3627 0B20                               l3619 0AD4  
                             l3571 17A0                               l3563 1790  
                             l3555 1776                               l3547 173C  
                             l3539 1208                               l3475 12FE  
                             l3467 12F2                               l3459 12E8  
                             l3491 18AE                               l3483 188A  
                             l3731 067C                               l3723 064A  
                             l3715 0602                               l3707 05C2  
                             l5253 107E                               l5245 1044  
                             l5229 0FEE                               l5237 1016  
                             l5181 0EC6                               l5173 0EA2  
                             l5165 0E8C                               l5157 0E40  
                             l4701 07D2                               l3813 17E8  
                             l3805 17DA                               l3821 1802  
                             l3653 0C20                               l3645 0BD0  
                             l3637 0B84                               l3629 0B34  
                             l3901 1B20                               l3573 17A4  
                             l3565 1794                               l3557 177E  
                             l3549 1744                               l3581 15F0  
                             l3469 12F4                               l3477 1300  
                             l3493 18B8                               l3485 188C  
                             l3741 06A8                               l3733 0686  
                             l3725 065C                               l3717 0614  
                             l3709 05D4                               l3661 04AA  
                             l5239 1020                               l5247 1050  
                             l5191 0EFC                               l5183 0ECE  
                             l5175 0EA4                               l5167 0E8E  
                             l5159 0E4E                               l4703 094A  
                             l4711 098E                               l3823 1818  
                             l3815 17EC                               l3807 17DE  
                             l3655 0C34                               l3647 0BE4  
                             l3639 0B98                               l5319 0158  
                             l3911 1B2E                               l3903 1B22  
                             l3831 1AF8                               l3575 17A8  
                             l3567 1798                               l3559 1786  
                             l3591 1628                               l3583 15F8  
                             l3479 1336                               l3487 1896  
                             l3495 18BA                               l3751 06F0  
                             l3743 06B8                               l3735 0690  
                             l3727 066E                               l3719 0626  
                             l3671 04D2                               l3663 04B2  
                             l5281 1846                               l5273 181E  
                             l5249 105A                               l5193 0F04  
                             l5185 0EDC                               l5177 0EB0  
                             l5169 0E94                               l4705 0952  
                             l3817 17EE                               l3809 17E2  
                             l4721 0CB2                               l4713 0C76  
                             l3657 0C48                               l3649 0BF8  
                             l3921 170A                               l3913 16C8  
                             l4801 01D2                               l3905 1B24  
                             l3825 1ADC                               l3833 1AAC  
                             l3569 179C                               l3593 1638  
                             l3585 1600                               l3577 15DA  
                             l3489 189E                               l3497 18E2  
                             l3761 0740                               l3753 0700  
                             l3745 06C8                               l3737 069A  
                             l3729 0672                               l3681 051A  
                             l3673 04E2                               l3665 04B4  
                             l5291 1874                               l5283 1852  
                             l5275 1826                               l5195 0F12  
                             l5187 0EEC                               l5179 0EBC  
                             l4707 096C                               l3819 17FC  
                             l4731 0D06                               l4723 0CC4  
                             l4715 0C7E                               l3659 0C5C  
                             l3931 156C                               l3923 170C  
                             l3915 16D0                               l4811 01F2  
                             l4803 01DE                               l3907 1B26  
                             l3827 1AE8                               l3835 1AB6  
                             l3595 163C                               l3587 1608  
                             l3579 15EC                               l3499 18E6  
                             l3763 0750                               l3755 0710  
                             l3747 06D8                               l3739 069C  
                             l3771 0778                               l3691 056A  
                             l3683 052A                               l3675 04F2  
                             l3667 04B6                               l5293 187A  
                             l5285 1858                               l5277 1832  
                             l5197 0F22                               l5189 0EF2  
                             l3781 1902                               l4709 0974  
                             l4741 0D50                               l4733 0D16  
                             l4725 0CD4                               l4717 0C86  
                             l3941 15B8                               l3933 157A  
                             l3925 171A                               l3917 16DC  
                             l4901 03DC                               l4821 0224  
                             l4813 01F4                               l4805 01E2  
                             l3909 1B2A                               l3829 1AF2  
                             l3837 1AC2                               l3597 1640  
                             l3589 1618                               l3773 077C  
                             l3765 0760                               l3757 0720  
                             l3749 06E4                               l3693 057A  
                             l3685 053A                               l3677 04FE  
                             l3669 04C2                               l5287 1868  
                             l5279 183C                               l5199 0F28  
                             l3791 191A                               l3783 1906  
                             l3775 18E8                               l4751 0D9E  
                             l4743 0D74                               l4735 0D1E  
                             l4727 0CDC                               l4719 0CA2  
                             l3599 0A28                               l3935 1588  
                             l3927 155C                               l3951 19BE  
                             l3943 1984                               l3919 16DE  
                             l4911 03EE                               l4903 03DE  
                             l4831 0270                               l4823 022E  
                             l4807 01EE                               l4815 01FA  
                             l3839 1AC8                               l3767 0772  
                             l3759 0730                               l3695 057E  
                             l3687 054A                               l3679 050A  
                             l5289 1870                               l3793 191E  
                             l3785 190A                               l3777 18EC  
                             l3961 1376                               l3953 133E  
                             l4761 0DD2                               l4753 0DA2  
                             l4745 0D80                               l4737 0D26  
                             l4729 0CE4                               l3937 1590  
                             l3929 1564                               l3945 198C  
                             l4921 043C                               l4913 040A  
                             l4905 03E0                               l4841 02C6  
                             l4833 027C                               l4825 0242  
                             l4817 0206                               l4809 01F0  
                             l3881 1B8E                               l3769 0776  
                             l3697 0588                               l3689 055A  
                             l3787 190C                               l3779 18F8  
                             l3971 13B8                               l3963 137C  
                             l3955 1346                               l4691 078C  
                             l3795 17AE                               l4771 0DF2  
                             l4763 0DDA                               l4755 0DA6  
                             l4747 0D8A                               l4739 0D48  
                             l3939 1598                               l3947 1994  
                             l4915 040E                               l4907 03E2  
                             l4843 02D0                               l4851 0316  
                             l4835 029C                               l4827 024C  
                             l4819 021C                               l4923 043E  
                             l3891 1B12                               l3883 1B90  
                             l3699 058A                               l4931 140E  
                             l3789 190E                               l3981 1406  
                             l3973 13C4                               l3965 138C  
                             l3957 134E                               l4693 07A6  
                             l3797 17B4                               l4765 0DDE  
                             l4757 0DAE                               l4749 0D96  
                             l3949 19B4                               l4917 0412  
                             l4909 03E4                               l4861 0324  
                             l4853 031A                               l4845 02EC  
                             l4837 02A0                               l4829 0268  
                             l4925 0486                               l4781 0102  
                             l4773 00D6                               l3893 1B14  
                             l3885 1B92                               l3877 1B78  
                             l4941 143C                               l4933 141A  
                             l3975 13DA                               l3967 1394  
                             l3959 136A                               l4695 07A8  
                             l3799 17B8                               l4767 0DE2  
                             l4759 0DB6                               l4919 0416  
                             l4871 033C                               l4863 0326  
                             l4855 031E                               l4847 02F0  
                             l4839 02C2                               l4791 01B0  
                             l4783 0110                               l4775 00D8  
                             l3895 1B16                               l3887 1B0C  
                             l3879 1B8C                               l4951 14B8  
                             l4943 144E                               l4935 141E  
                             _ADIE 007CEE                               _ADIF 007CF6  
                             l3977 13E2                               l3969 139C  
                             l4697 07B6                               l4689 077E  
                             l4769 0DEA                               l4881 0364  
                             l4873 033E                               l4865 032A  
                             l4857 0320                               l4849 02F4  
                             l4793 01BC                               l4785 011E  
                             l4777 00E6                               l3897 1B18  
                             l3889 1B10                               l4953 14BA  
                             l4945 1452                               l4937 1422  
                             l4971 109A                               l3979 13EA  
                             l4699 07D0                               l4891 03B0  
                             l4883 0380                               l4875 034A  
                             l4867 032E                               l4859 0322  
                             l4795 01BE                               l4779 00F4  
                             l4787 0120                               l3899 1B1C  
                             l4947 147E                               l4939 1434  
                             l4981 10DE                               l4973 10A8  
                             l4893 03C8                               l4885 0384  
                             l4877 034E                               l4869 0338  
                             l4797 01CE                               l4789 0176  
                             l4949 14AC                               l4991 1138  
                             l4983 10F4                               l4975 10AC  
                             l4967 1080                               l4895 03CA  
                             l4887 0388                               l4879 035A  
                             l4799 01D0                               l4993 1150  
                             l4985 1118                               l4977 10B8  
                             l4969 108A                               l4897 03CC  
                             l4889 038C                               l4995 115A  
                             l4987 1124                               l4979 10DC  
                             l4899 03D8                               l4997 115E  
                             l4989 1134                               l4999 116C  
                   EEPROMWrite@dat 0017                               _T0CS 007EAD  
                             u2500 0A34                               u2501 0A32  
                             u2510 0AE8                               u2511 0AE6  
                             u2520 0AF8                               u2600 0690  
                             u2521 0AF6                               u2601 068E  
                             u2530 0BAC                               u2450 128C  
                             u2610 069A                               u2531 0BAA  
                             u2451 128A                               u2611 0698  
                             u4300 0F6E                               u2620 1932  
                             u2540 0BBC                               u2460 12A4  
                             u2621 1930                               u2541 0BBA  
                             u2461 12A2                               u4310 0F7E  
                             u2630 17FA                               u2550 0C70  
                             u2470 12B8                               u4311 0F7C  
                             u2631 17F8                               u2551 0C6E  
                             u2471 12B6                               u4400 184E  
                             u4320 0FB0                               u4240 0E30  
                             u2640 1816                               u2480 15EA  
                             u2560 04B2                               u4401 184C  
                             u4305 0F66                               u2641 1814  
                             u2481 15E8                               u2561 04B0  
                             u4410 1868                               u4330 0FE0  
                             u4250 0E40                               u2730 16DA  
                             u2650 1B08                               u2490 164E  
                             u2570 0588                               u4411 1866  
                             u4331 0FDE                               u4251 0E3E  
                             u2731 16D8                               u2651 1B06  
                             u2491 164C                               u2571 0586  
                             u4340 0FEE                               u4260 0E6E  
                             u3700 0CB2                               u2740 1716  
                             u2660 1AD8                               u2580 067C  
                             u4341 0FEC                               u4325 0FA8  
                             u4245 0E28                               u3701 0CB0  
                             u2741 1714                               u2661 1AD6  
                             u2581 067A                               u4350 1020  
                             u4270 0E7E                               u3710 0CC2  
                             u2750 156C                               u2590 0686  
                             u4351 101E                               u4271 0E7C  
                             u3711 0CC0                               u2751 156A  
                             u2591 0684                               u4360 104C  
                             u4280 0ECE                               u3640 07A4  
                             u3720 0CD4                               u2760 19BE  
                             u3800 022E                               u4361 104A  
                             u4281 0ECC                               u4265 0E66  
                             u3641 07A2                               u3721 0CD2  
                             u2761 19BC                               u3801 022C  
                             u4370 105A                               u4290 0F04  
                             u2930 165C                               u3650 07CE  
                             u3730 0D16                               u3810 02D0  
                             u4371 1058                               u4291 0F02  
                             u2931 165A                               u3651 07CC  
                             u3731 0D14                               u3811 02CE  
                             u3900 1114                               u2940 1674  
                             u3820 0364                               u3901 1112  
                             u2941 1672                               u3821 0362  
                             u4390 1832                               u3910 112C  
                             u2950 1694                               u3830 03EE  
                             u4391 1830                               u3911 112A  
                             u2951 1692                               u3831 03EC  
                             u3920 1134                               u3680 096A  
                             u3760 01B0                               u3840 147E  
                             u3921 1132                               u3681 0968  
                             u3665 0852                               u3761 01AE  
                             u3745 0134                               u3841 147C  
                             u3930 115A                               u3690 098C  
                             u3770 01BA                               u3850 14B6  
                             u3931 1158                               u3691 098A  
                             u3675 090E                               u3771 01B8  
                             u3755 0194                               u3851 14B4  
                             u3780 0206                     EEPROMWrite@num 0015  
                             u3781 0204                               u3870 108A  
                             u3790 021C                               u3871 1088  
                             u3791 021A                               u3880 1098  
                             u3881 1096                               u3890 10D8  
                             u3891 10D6                               _main 140E  
                     ___ftpack@arg 0013                       ___ftpack@exp 0016  
                             fsr0h 000FEA                               fsr1h 000FE2  
                             fsr0l 000FE9                               fsr2h 000FDA  
                             indf1 000FE7                               fsr1l 000FE1  
                             indf2 000FDF                               fsr2l 000FD9  
                             _rows 00BD                               pclat 000FFA  
                             prodh 000FF4                               prodl 000FF3  
                             start 00D2                      ?_LED_Off_Disp 0001  
              __size_of_CANWriteID 004A                      __CFG_FOSC$HS1 000000  
                 __end_of_CANSetID 17AE                    __end_of_GetAddr 18E8  
              __size_of_EEPROMRead 004E                       ___ftmul@cntr 002A  
                     ___ftmul@sign 002B                       ___fttol@exp1 003A  
                     ___fttol@lval 0036                              ?_main 0001  
                    _yflash_status 0042                              _EEADR 000F74  
             GetLampBoardAddr@addr 0016                    EEPROMWrite@addr 0013  
                  __end_of___ftmul 0F50                              _T1CON 000FCD  
                  __end_of___fttol 1080                    __end_of___lwdiv 188A  
                            _ERRIF 007BBD                              i2l502 1BA2  
                            i2l512 0058                              i2l505 1A12  
                            i2l513 0070                              i2l506 1A12  
                            i2l514 0080                              i2l515 0098  
                            i2l516 0098                              i2l509 1B76  
                            i2l480 1A2A                              i2l481 1A16  
                            i2l490 1A6E                              i2l482 1A3A  
                            i2l491 1A52                              i2l483 1A1E  
                            i2l492 1A5A                              i2l484 1A26  
                            i2l493 1A7A                              i2l485 1A46  
                            i2l488 1A5E                              i2l496 1B56  
                            i2l489 1A4A                              i2l497 1B4E  
                            i2l498 1B54                              i2l499 1B56  
                            _TMR0H 000FD7                              _TMR1H 000FCF  
                            _TMR0L 000FD6                              _TMR1L 000FCE  
                            _PORTB 000F81                              _TRISB 000F93  
                            _TRISC 000F94                              _TRISD 000F95  
                  ?_CANSendConfirm 0001                    __end_of_delayms 1ADC  
                  __end_of_delayus 1B0C                      __CFG_WRTD$OFF 000000  
                 __end_of_PORTInit 1B96                              _lines 00BA  
                    ___ftpack@sign 0017                     __pbitbssCOMRAM 0268  
                            tablat 000FF5                              status 000FD8  
         __end_of_CANDATAAnalyzing 04AA                  __end_of_CANErrClr 1BAA  
                   ??_LED_Off_Disp 0001                  __end_of_CANSendID 15DA  
                       _IntManager 1B0C               __size_of_EEPROMWrite 0070  
             __size_of_ADIntServer 0020                       __end_of_main 14C8  
                    CANInit@b_addr 001A                          ??_CANInit 001B  
                        ??_CANRecv 0022                          ??_CANSend 0018  
                           ??_main 00ED                      ___fttol@sign1 0035  
                ??_Read_YFlash_CFG 0019                      __activetblptr 000000  
            __size_of_CANFilterSet 00EC                             _CANCON 000F6F  
                           _ADRESH 000FC4                             _EEADRH 000F75  
                           _ADRESL 000FC3                             _EEDATA 000F73  
                           _EECON1 000F7F                             _EECON2 000F7E  
                           _ANCON1 000F5C                             _T08BIT 007EAE  
                           _CANInt 0268                             _CANRid 00D0  
                           _CIOCON 000F70                             _CANSid 00D4  
                 __end_of___ftpack 116E                     __CFG_WDTEN$OFF 000000  
                 ADIntServer@adrel 0003                             i2l1781 1B60  
                           i2l1775 1B96                             i2l1777 1B9E  
                           i2l1779 1B58                             i2l4631 1B3E  
                           i2l4633 1B48                             i2l4641 19DE  
                           i2l4635 1B4E                             i2l4643 19FE  
                           i2l4651 0050                             i2l4629 1B34  
                           i2l4645 1A0C                             i2l4637 19CE  
                           i2l4661 006A                             i2l4653 0052  
                           i2l3871 1A48                             i2l4639 19D6  
                           i2l4671 0092                             i2l4663 0070  
                           i2l4655 0058                             i2l4647 0040  
                           _INTCON 000FF2                             i2l3873 1A5C  
                           i2l3865 1A14                             i2l4665 007C  
                           i2l4657 0060                             i2l4649 0048  
                           i2l3875 1A5E                             i2l3867 1A28  
                           i2l4667 0088                             i2l4659 0068  
                           i2l3869 1A2A                             i2l4669 0090  
                        ??_GetAddr 0018                             _RXB0D0 000F66  
                           _RXB0D1 000F67                             _RXB0D2 000F68  
                           _RXB0D3 000F69                             _RXB1D0 000F36  
                           _RXB0D4 000F6A                             _RXB1D1 000F37  
                           _RXB0D5 000F6B                             _RXB1D2 000F38  
                           _RXB0D6 000F6C                             _RXB1D3 000F39  
                           _RXB0D7 000F6D                             _RXB1D4 000F3A  
                           _RXB1D5 000F3B                             _RXB1D6 000F3C  
                           _RXB1D7 000F3D                             _RXB0IF 007BB8  
                           _RXB1IF 007BB9                             _TMR0IE 007F95  
                           _TMR0IF 007F92                             _TMR1IE 007CE8  
                           _TMR1IF 007CF0                             _TXB0D0 000F26  
                           _TXB0D1 000F27                             _TXB0D2 000F28  
                           _TXB0D3 000F29                             _TMR0ON 007EAF  
                           _TXB1D0 000F16                             _TXB0D4 000F2A  
                           _TXB1D1 000F17                             _TXB0D5 000F2B  
                           _TXB1D2 000F18                             _TXB0D6 000F2C  
                           _TXB1D3 000F19                             _TXB0D7 000F2D  
                           _TXB2D0 000F06                             _TXB1D4 000F1A  
                           _TXB2D1 000F07                             _TXB1D5 000F1B  
                           _TXB2D2 000F08                             _TXB1D6 000F1C  
                           _TXB2D3 000F09                             _TXB1D7 000F1D  
                           _TXB2D4 000F0A                             _TXB2D5 000F0B  
                           _TXB2D6 000F0C                             _TXB2D7 000F0D  
                           _TXB0IF 007BBA                             _TXB1IF 007BBB  
                           _TXB2IF 007BBC                 __size_of_IntServer 00CA  
        __size_of_GetLampBoardAddr 00E4                     __CFG_XINST$OFF 000000  
                        CANRecv@id 001C                          CANSend@id 0013  
            __end_of_HeartbeatTest 16C8                          ??___ftmul 0021  
                        ??___fttol 0030                       _CANFilterSet 116E  
                        ??___lwdiv 0017                             clear_0 14D0  
                           clear_1 14E2                             clear_2 14F0  
                           _period 0090                          ??_delayms 0019  
                        ??_delayus 0015                       ??_CANWriteID 001C  
            ___ftmul@f3_as_product 0027                       ??_EEPROMRead 0019  
                     __pdataCOMRAM 0049        __size_of_YFlashNewConfigure 019C  
__size_of_CalculateTime25msCounter 02AA                             tblptrh 000FF7  
        ?_CalculateTime25msCounter 00D8                             tblptrl 000FF6  
                           tblptru 000FF8                          ?_CANSetID 0013  
             __size_of_LED_On_Disp 0034              __end_of_TMR0IntServer 1BA4  
                       __accesstop 0060              __end_of_TMR1IntServer 1A14  
                      ?_IntManager 0001                 __end_of_CANWriteID 19CE  
                       ___ftmul@f1 001B                         ___ftmul@f2 001E  
               __end_of_EEPROMRead 1936                         ___fttol@f1 002C  
                   __pcstackCOMRAM 0001                       __pidataBANK0 1936  
                     __pidataBANK1 1A7C                          ?_PORTInit 0001  
                    ??_YellowFlash 0001                  __end_of_IntServer 00D2  
             __end_of_LED_Off_Disp 1A7C                         ??_CANSetID 0015  
                       __pbssBANK0 00AE                    __CFG_PLLCFG$OFF 000000  
        CalculateTime25msCounter@i 00E0          CalculateTime25msCounter@j 00E2  
                     _t500ms_count 00BF                    _time_on_counter 00B4  
                       ??_PORTInit 0013                   ??_CANSendConfirm 0018  
                          _ECANCON 000F72                            _CANSTAT 000F6E  
                        ?___ftpack 0013                            _CANInit 15DA  
                          _CANRdlc 004B                            _CANRecv 04AA  
                          _CANSdlc 0049                            _CANSend 0A28  
                          _BRGCON1 000E43                            _BRGCON2 000E44  
                          _BRGCON3 000E45                     CANSetID@f_type 0014  
                       _eeprom_num 004C                __size_of_IntManager 0028  
                          _RXB0DLC 000F65                            _RXB1DLC 000F35  
                          _RXB0CON 000F60                            _RXB1CON 000F30  
                          _TXB0DLC 000F25                            _TXB1DLC 000F15  
                          _TXB0CON 000F20                            _TXB2DLC 000F05  
                          _TXB1CON 000F10                            _TXB2CON 000F00  
              __end_of_YellowFlash 1B58                            _GetAddr 188A  
                ?_CANDATAAnalyzing 00E4                   _GetLampBoardAddr 125A  
                          __Hparam 0000                            __Lparam 0000  
               ??_CANDATAAnalyzing 00E9                    _Read_YFlash_CFG 133E  
                       CANRecv@dat 001E                         CANRecv@dlc 0020  
                        _CANErrClr 1BA8                            _t1_cont 00AE  
                       CANSend@dat 0015                         CANSend@dlc 0017  
                        _CANSendID 155C                            ___ftmul 0E12  
                          ___fttol 0F50                            ___lwdiv 181E  
                          __pcinit 14C8                         ??___ftpack 0018  
                          _f_r_mod 003E                            __ramtop 0F00  
                          _delayms 1AAC                            _delayus 1ADC  
                          __ptext0 140E                            __ptext1 04AA  
                          __ptext2 188A                            __ptext3 125A  
                          __ptext4 15DA                            __ptext5 116E  
                          __ptext6 1BA8                            __ptext7 173C  
                          __ptext8 1AAC                            __ptext9 1ADC  
               CANFilterSet@f_type 0014                            _my_addr 0040  
                          _time5ms 026A                            _time_on 0270  
             end_of_initialization 1556                            _turnoff 004A  
                    _can_time_cont 00B6                      ??_EEPROMWrite 0019  
                    ??_ADIntServer 0001                CANDATAAnalyzing@dat 00E6  
              CANDATAAnalyzing@dlc 00E8                         ?_CANErrClr 0001  
                       ?_CANSendID 0019                            postdec1 000FE5  
                          postdec2 000FDD                            postinc0 000FEE  
                          postinc2 000FDE   __end_of_CalculateTime25msCounter 0A28  
            __size_of_LED_Off_Disp 0034                      EEPROMRead@dat 0017  
                    EEPROMRead@num 0015                        _YellowFlash 1B34  
                       _yflash_CFG 0047                  __size_of_CANSetID 0072  
          __end_of_Read_YFlash_CFG 140E                       ??_IntManager 0013  
                     _LED_Off_Disp 1A48                        ___ftmul@exp 0026  
                       _switchmode 0269                __end_of_EEPROMWrite 181E  
              __end_of_ADIntServer 1B78                      __pidataCOMRAM 1BA4  
       __end_of_YFlashNewConfigure 0E12                  __size_of_PORTInit 001E  
              start_initialization 14C8                      ??_LED_On_Disp 0001  
               __end_of_IntManager 1B34                          _IntServer 0008  
                     _cycledutyoff 0100             __size_of_HeartbeatTest 0076  
                     _force_status 003F                        ??_CANErrClr 0013  
                      ??_CANSendID 001A                   _time_off_counter 00B2  
                      __pdataBANK0 0060                        __pdataBANK1 0100  
                         ?_CANInit 001A                           ?_CANRecv 001C  
                         ?_CANSend 0013             __size_of_TMR0IntServer 000E  
         _CalculateTime25msCounter 077E                  __size_of___ftpack 00EE  
         __end_of_GetLampBoardAddr 133E                        __pbssBIGRAM 0130  
           __size_of_TMR1IntServer 0046                        __pbssCOMRAM 003C  
                    __pcstackBANK0 00D8                         ?_IntServer 0001  
              __end_of_LED_On_Disp 1A48                           ?_GetAddr 0017  
                 ?_Read_YFlash_CFG 0001                        _EEPROMWrite 17AE  
                      _ADIntServer 1B58                   ___lwdiv@dividend 0013  
                        __pintcode 0008                           ?___ftmul 001B  
                         ?___fttol 002C                           ?___lwdiv 0013  
                        _heartbeat 00B7                      _HeartbeatTest 1652  
                         ?_delayms 0017                          _led_data0 00B8  
                        _led_data1 00B9                           ?_delayus 0013  
                GetAddr@board_type 0017          __size_of_CANDATAAnalyzing 03D4  
           CANFilterSet@board_addr 0013                           _CANSetID 173C  
                         _CANRdata 00C0                           _CANSdata 00C8  
                 ___lwdiv@quotient 0019                       CANWriteID@fm 001B  
                        _readwrite 0045                      _TMR0IntServer 1B96  
                      _eeprom_addr 0043                          delayms@ms 0017  
                        delayus@us 0013                      _TMR1IntServer 19CE  
                        _my_config 00BC                           i2u360_40 0068  
                         i2u360_41 0066                           i2u361_40 007C  
                         i2u361_41 007A                           i2u354_40 1B3E  
                         i2u362_40 0088                           i2u354_41 1B3C  
                         i2u362_41 0086                 CANDATAAnalyzing@id 00E4  
                         i2u355_40 1B48                           i2u363_40 0090  
                         i2u355_41 1B46                           i2u363_41 008E  
                         i2u356_40 19FE                           i2u356_41 19FC  
                         i2u357_40 0048                           i2u357_41 0046  
                         i2u358_40 0050                           i2u358_41 004E  
                         i2u359_40 0060                           i2u359_41 005E  
                         _RXB0EIDH 000F63                           _RXB0EIDL 000F64  
                         _RXB1EIDH 000F33                           _RXB1EIDL 000F34  
                         _RXB0SIDH 000F61                           _RXB0SIDL 000F62  
                         _RXF0EIDH 000EE2                           _RXB1SIDH 000F31  
                         _RXF0EIDL 000EE3                           _RXB1SIDL 000F32  
                         _RXF1EIDH 000EE6                           _RXF1EIDL 000EE7  
                         _RXF2EIDH 000EEA                           _RXF2EIDL 000EEB  
                         _RXF3EIDH 000EEE                           _RXF3EIDL 000EEF  
                         _RXF4EIDH 000EF2                           _RXF4EIDL 000EF3  
                         _RXF5EIDH 000EF6                           _RXF5EIDL 000EF7  
                         _RXF0SIDH 000EE0                           _RXF0SIDL 000EE1  
                         _TXB0EIDH 000F23                           _RXF1SIDH 000EE4  
                         _TXB0EIDL 000F24                           _RXF1SIDL 000EE5  
                         _TXB1EIDH 000F13                           _RXF2SIDH 000EE8  
                         _TXB1EIDL 000F14                           _RXF2SIDL 000EE9  
                         _TXB2EIDH 000F03                           _RXF3SIDH 000EEC  
                         _TXB2EIDL 000F04                           _RXF3SIDL 000EED  
                         _RXF4SIDH 000EF0                           _RXF4SIDL 000EF1  
                         _RXF5SIDH 000EF4                           _RXF5SIDL 000EF5  
                    ?_CANFilterSet 0013                           _RXM0EIDH 000EFA  
                         _RXM0EIDL 000EFB                           _TXB0SIDH 000F21  
                         _RXM1EIDH 000EFE                           _TXB0SIDL 000F22  
                         _RXM1EIDL 000EFF                     ?_HeartbeatTest 0001  
                         _TXB1SIDH 000F11                           _TXB1SIDL 000F12  
                         _TXB2SIDH 000F01                           _TXB2SIDL 000F02  
                         _RXM0SIDH 000EF8                           _RXM0SIDL 000EF9  
                         _RXM1SIDH 000EFC                           _RXM1SIDL 000EFD  
                         _PORTInit 1B78                   _master_time_cont 00BB  
                 __CFG_SOSCSEL$DIG 000000                   __size_of_CANInit 0078  
                     ?_YellowFlash 0001                   __size_of_CANRecv 02D4  
                 __size_of_CANSend 024E       CalculateTime25msCounter@line 00D9  
               CANSetID@board_addr 0013                        _LED_On_Disp 1A14  
                      ??_IntServer 0005            __size_of_CANSendConfirm 0074  
                        copy_data0 150A                          copy_data1 152A  
                        copy_data2 154A                     ?_TMR0IntServer 0001  
                      _cycledutyon 0060                   __size_of_GetAddr 005E  
                   ?_TMR1IntServer 0001                           __Hrparam 0000  
                         __Lrparam 0000                        CANSendID@sm 0019  
                   ??_CANFilterSet 0015                   __size_of___ftmul 013E  
                 __size_of___fttol 0130                   __size_of___lwdiv 006C  
                         ___ftpack 1080                   __size_of_delayms 0030  
                 __size_of_delayus 0030                         _CANWriteID 1984  
                    _time_counters 003C                         _EEPROMRead 18E8  
                  ___lwdiv@divisor 0015                    ___lwdiv@counter 0018  
                         __ptext10 1B78                           __ptext11 1B0C  
                         __ptext20 1652                           __ptext12 00D6  
                         __ptext21 133E                           __ptext13 16C8  
                         __ptext30 1B34                           __ptext22 18E8  
                         __ptext14 1984                           __ptext31 1A14  
                         __ptext23 0E12                           __ptext15 155C  
                         __ptext32 1A48                           __ptext24 1080  
                         __ptext16 0A28                           __ptext33 1B58  
                         __ptext25 0F50                           __ptext17 0C76  
                         __ptext34 0000                           __ptext26 181E  
                         __ptext18 17AE                           __ptext19 077E  
                         __ptext28 1B96                           __ptext29 19CE  
               _YFlashNewConfigure 0C76                      __size_of_main 00BA  
              ?_YFlashNewConfigure 0001                           delayms@i 0019  
                         delayus@i 0015         ??_CalculateTime25msCounter 00DA  
                  ??_HeartbeatTest 001A                           _time_off 0130  
                         _run_mode 0041        CalculateTime25msCounter@row 00D8  
                GetLampBoardAddr@i 0014                   _CANDATAAnalyzing 00D6  
             ??_YFlashNewConfigure 003B                  ?_GetLampBoardAddr 0001  
                       GetAddr@rel 0019                 ??_GetLampBoardAddr 0013  
                  ??_TMR0IntServer 0001                       _time_counter 00B0  
                         intlevel2 0000                    ??_TMR1IntServer 0001  
                     ?_EEPROMWrite 0013                       ?_ADIntServer 0001  
                  CANSendConfirm@i 0019                        ?_CANWriteID 001B  
                      ?_EEPROMRead 0013               __size_of_YellowFlash 0024  
                   _CANSendConfirm 16C8                     EEPROMRead@addr 0013  
             __end_of_CANFilterSet 125A  
